

Microchip MPLAB XC8 Assembler V2.41 build 20230208172133 
                                                                                               Tue Dec 05 17:38:01 2023

Microchip MPLAB XC8 C Compiler v2.41 (Free license) build 20230208172133 Og1 
     1                           	processor	18F4520
     2                           	fnconf	rparam,??,?,0
     3                           	pagewidth 120
     4                           	opt	flic
     5                           	psect	idataCOMRAM,global,class=CODE,delta=1,noexec
     6                           	psect	idataBANK0,global,class=CODE,delta=1,noexec
     7                           	psect	idataBANK1,global,class=CODE,delta=1,noexec
     8                           	psect	smallconst,global,reloc=2,class=SMALLCONST,delta=1,noexec
     9                           	psect	cinit,global,reloc=2,class=CODE,delta=1
    10                           	psect	bssCOMRAM,global,class=COMRAM,space=1,delta=1,lowdata,noexec
    11                           	psect	dataCOMRAM,global,class=COMRAM,space=1,delta=1,lowdata,noexec
    12                           	psect	bssBANK0,global,class=BANK0,space=1,delta=1,lowdata,noexec
    13                           	psect	dataBANK0,global,class=BANK0,space=1,delta=1,lowdata,noexec
    14                           	psect	bssBANK1,global,class=BANK1,space=1,delta=1,lowdata,noexec
    15                           	psect	dataBANK1,global,class=BANK1,space=1,delta=1,lowdata,noexec
    16                           	psect	cstackBANK1,global,class=BANK1,space=1,delta=1,lowdata,noexec
    17                           	psect	cstackBANK0,global,class=BANK0,space=1,delta=1,lowdata,noexec
    18                           	psect	cstackCOMRAM,global,class=COMRAM,space=1,delta=1,lowdata,noexec
    19                           	psect	text0,global,reloc=2,class=CODE,delta=1
    20                           	psect	text1,global,reloc=2,class=CODE,delta=1
    21                           	psect	text2,global,reloc=2,class=CODE,delta=1
    22                           	psect	text3,global,reloc=2,class=CODE,delta=1
    23                           	psect	text4,global,reloc=2,class=CODE,delta=1
    24                           	psect	text5,global,reloc=2,class=CODE,delta=1
    25                           	psect	text6,global,reloc=2,class=CODE,delta=1
    26                           	psect	text7,global,reloc=2,class=CODE,delta=1
    27                           	psect	text8,global,reloc=2,class=CODE,delta=1
    28                           	psect	text9,global,reloc=2,class=CODE,delta=1
    29                           	psect	text10,global,reloc=2,class=CODE,delta=1
    30                           	psect	text11,global,reloc=2,class=CODE,delta=1
    31                           	psect	text12,global,reloc=2,class=CODE,delta=1
    32                           	psect	text13,global,reloc=2,class=CODE,delta=1,group=1
    33                           	psect	text14,global,reloc=2,class=CODE,delta=1,group=1
    34                           	psect	text15,global,reloc=2,class=CODE,delta=1
    35                           	psect	text16,global,reloc=2,class=CODE,delta=1
    36                           	psect	text17,global,reloc=2,class=CODE,delta=1
    37                           	psect	text18,global,reloc=2,class=CODE,delta=1
    38                           	psect	text19,global,reloc=2,class=CODE,delta=1
    39                           	psect	text20,global,reloc=2,class=CODE,delta=1
    40                           	psect	text21,global,reloc=2,class=CODE,delta=1
    41                           	psect	text22,global,reloc=2,class=CODE,delta=1
    42                           	psect	text23,global,reloc=2,class=CODE,delta=1
    43                           	psect	text24,global,reloc=2,class=CODE,delta=1
    44                           	psect	text25,global,reloc=2,class=CODE,delta=1
    45                           	psect	text26,global,reloc=2,class=CODE,delta=1
    46                           	psect	text27,global,reloc=2,class=CODE,delta=1
    47                           	psect	text28,global,reloc=2,class=CODE,delta=1
    48                           	psect	text29,global,reloc=2,class=CODE,delta=1
    49                           	psect	text30,global,reloc=2,class=CODE,delta=1
    50                           	psect	text31,global,reloc=2,class=CODE,delta=1
    51                           	psect	text32,global,reloc=2,class=CODE,delta=1
    52                           	psect	text33,global,reloc=2,class=CODE,delta=1
    53                           	psect	text34,global,reloc=2,class=CODE,delta=1
    54                           	psect	text35,global,reloc=2,class=CODE,delta=1
    55                           	psect	text36,global,reloc=2,class=CODE,delta=1
    56                           	psect	text37,global,reloc=2,class=CODE,delta=1
    57                           	psect	text38,global,reloc=2,class=CODE,delta=1
    58                           	psect	text39,global,reloc=2,class=CODE,delta=1
    59                           	psect	text40,global,reloc=2,class=CODE,delta=1
    60                           	psect	text41,global,reloc=2,class=CODE,delta=1
    61                           	psect	text42,global,reloc=2,class=CODE,delta=1
    62                           	psect	text43,global,reloc=2,class=CODE,delta=1
    63                           	psect	text44,global,reloc=2,class=CODE,delta=1
    64                           	psect	intcodelo,global,reloc=2,class=CODE,delta=1
    65                           	psect	text46,global,reloc=2,class=CODE,delta=1
    66                           	psect	intcode,global,reloc=2,class=CODE,delta=1
    67                           	psect	intcode_body,global,reloc=2,class=CODE,delta=1
    68                           	psect	text48,global,reloc=2,class=CODE,delta=1
    69                           	psect	text49,global,reloc=2,class=CODE,delta=1
    70                           	psect	text50,global,reloc=2,class=CODE,delta=1,group=1
    71                           	psect	text51,global,reloc=2,class=CODE,delta=1
    72                           	psect	text52,global,reloc=2,class=CODE,delta=1
    73                           	psect	text53,global,reloc=2,class=CODE,delta=1
    74                           	psect	intsave_regs,global,class=BIGRAM,space=1,delta=1,noexec
    75                           	psect	rparam,global,class=COMRAM,space=1,delta=1,noexec
    76                           	psect	temp,global,ovrld,common,class=COMRAM,space=1,delta=1
    77                           	psect	config,global,abs,ovrld,class=CONFIG,space=4,delta=1,noexec
    78   000000                     
    79                           ; Generated 23/03/2023 GMT
    80                           ; 
    81                           ; Copyright © 2023, Microchip Technology Inc. and its subsidiaries ("Microchip")
    82                           ; All rights reserved.
    83                           ; 
    84                           ; This software is developed by Microchip Technology Inc. and its subsidiaries ("Microch
      +                          ip").
    85                           ; 
    86                           ; Redistribution and use in source and binary forms, with or without modification, are
    87                           ; permitted provided that the following conditions are met:
    88                           ; 
    89                           ;     1. Redistributions of source code must retain the above copyright notice, this lis
      +                          t of
    90                           ;        conditions and the following disclaimer.
    91                           ; 
    92                           ;     2. Redistributions in binary form must reproduce the above copyright notice, this 
      +                          list
    93                           ;        of conditions and the following disclaimer in the documentation and/or other
    94                           ;        materials provided with the distribution. Publication is not required when
    95                           ;        this file is used in an embedded application.
    96                           ; 
    97                           ;     3. Microchip's name may not be used to endorse or promote products derived from th
      +                          is
    98                           ;        software without specific prior written permission.
    99                           ; 
   100                           ; THIS SOFTWARE IS PROVIDED BY MICROCHIP "AS IS" AND ANY EXPRESS OR IMPLIED WARRANTIES,
   101                           ; INCLUDING, BUT NOT LIMITED TO, THE IMPLIED WARRANTIES OF MERCHANTABILITY AND FITNESS F
      +                          OR
   102                           ; PURPOSE ARE DISCLAIMED.  IN NO EVENT SHALL MICROCHIP BE LIABLE FOR ANY DIRECT, INDIREC
      +                          T,
   103                           ; INCIDENTAL, SPECIAL, EXEMPLARY, OR CONSEQUENTIAL DAMAGES (INCLUDING BUT NOT LIMITED TO
   104                           ; PROCUREMENT OF SUBSTITUTE GOODS OR SERVICES; LOSS OF USE, DATA OR PROFITS; OR BUSINESS
   105                           ; INTERRUPTION) HOWSOEVER CAUSED AND ON ANY THEORY OF LIABILITY, WHETHER IN CONTRACT, ST
      +                          RICT
   106                           ; LIABILITY, OR TORT (INCLUDING NEGLIGENCE OR OTHERWISE) ARISING IN ANY WAY OUT OF THE U
      +                          SE OF
   107                           ; THIS SOFTWARE, EVEN IF ADVISED OF THE POSSIBILITY OF SUCH DAMAGE.
   108                           ; 
   109                           ; 
   110                           ; Code-generator required, PIC18F4520 Definitions
   111                           ; 
   112                           ; SFR Addresses
   113   000000                     
   114                           	psect	idataCOMRAM
   115   002A70                     __pidataCOMRAM:
   116                           	callstack 0
   117                           
   118                           ;initializer for _S7_Mode
   119   002A70  03                 	db	3
   120                           
   121                           ;initializer for _S6_Mode
   122   002A71  03                 	db	3
   123                           
   124                           ;initializer for _S5_Mode
   125   002A72  03                 	db	3
   126                           
   127                           ;initializer for _S4_Mode
   128   002A73  03                 	db	3
   129                           
   130                           ;initializer for _S3_Mode
   131   002A74  03                 	db	3
   132                           
   133                           ;initializer for _S2_Mode
   134   002A75  03                 	db	3
   135                           
   136                           ;initializer for _S1_Mode
   137   002A76  03                 	db	3
   138                           
   139                           ;initializer for _S0_Mode
   140   002A77  03                 	db	3
   141                           
   142                           	psect	idataBANK0
   143   002980                     __pidataBANK0:
   144                           	callstack 0
   145                           
   146                           ;initializer for OpenS5500@F2852
   147   002980  0A                 	db	10
   148   002981  0A                 	db	10
   149   002982  0F                 	db	15
   150   002983  01                 	db	1
   151                           
   152                           ;initializer for OpenS5500@F2850
   153   002984  FF                 	db	255
   154   002985  FF                 	db	255
   155   002986  FF                 	db	255
   156   002987  00                 	db	0
   157                           
   158                           ;initializer for OpenS5500@F2848
   159   002988  0A                 	db	10
   160   002989  0A                 	db	10
   161   00298A  0F                 	db	15
   162   00298B  DF                 	db	223
   163                           
   164                           ;initializer for OpenW5500@F2679
   165   00298C  0A                 	db	10
   166   00298D  0A                 	db	10
   167   00298E  0F                 	db	15
   168   00298F  01                 	db	1
   169                           
   170                           ;initializer for OpenW5500@F2677
   171   002990  FF                 	db	255
   172   002991  FF                 	db	255
   173   002992  FF                 	db	255
   174   002993  00                 	db	0
   175                           
   176                           ;initializer for OpenW5500@F2675
   177   002994  0A                 	db	10
   178   002995  0A                 	db	10
   179   002996  0F                 	db	15
   180   002997  DF                 	db	223
   181                           
   182                           	psect	idataBANK1
   183   0029B0                     __pidataBANK1:
   184                           	callstack 0
   185                           
   186                           ;initializer for OpenS5500@F2846
   187   0029B0  F4                 	db	244
   188   0029B1  6B                 	db	107
   189   0029B2  8C                 	db	140
   190   0029B3  CE                 	db	206
   191   0029B4  67                 	db	103
   192   0029B5  4B                 	db	75
   193                           
   194                           ;initializer for OpenW5500@F2673
   195   0029B6  F4                 	db	244
   196   0029B7  6B                 	db	107
   197   0029B8  8C                 	db	140
   198   0029B9  CE                 	db	206
   199   0029BA  67                 	db	103
   200   0029BB  4B                 	db	75
   201                           
   202                           ;initializer for _rtc_default_values
   203   0029BC  10                 	db	16
   204   0029BD  12                 	db	18
   205   0029BE  09                 	db	9
   206   0029BF  05                 	db	5
   207   0029C0  30                 	db	48
   208   0029C1  11                 	db	17
   209   0029C2  23                 	db	35
   210   0029C3  00                 	db	0
   211   0029C4  00                 	db	0
   212   0029C5  00                 	db	0
   213   000000                     _EECON2	set	4007
   214   000000                     _EEDATA	set	4008
   215   000000                     _EEADR	set	4009
   216   000000                     _TXREG1	set	4013
   217   000000                     _RCREG1	set	4014
   218   000000                     _SPBRG1	set	4015
   219   000000                     _INTCON2bits	set	4081
   220   000000                     _TMR3L	set	4018
   221   000000                     _TMR3H	set	4019
   222   000000                     _TMR1L	set	4046
   223   000000                     _TMR1H	set	4047
   224   000000                     _TMR0L	set	4054
   225   000000                     _TMR0H	set	4055
   226   000000                     _SSPCON1	set	4038
   227   000000                     _SSPSTAT	set	4039
   228   000000                     _PIE1	set	3997
   229   000000                     _RCSTA1bits	set	4011
   230   000000                     _TXSTA1bits	set	4012
   231   000000                     _T3CONbits	set	4017
   232   000000                     _T2CONbits	set	4042
   233   000000                     _T1CONbits	set	4045
   234   000000                     _T0CONbits	set	4053
   235   000000                     _PORTDbits	set	3971
   236   000000                     _PORTBbits	set	3969
   237   000000                     _LATBbits	set	3978
   238   000000                     _LATCbits	set	3979
   239   000000                     _PORTAbits	set	3968
   240   000000                     _TRISAbits	set	3986
   241   000000                     _OSCTUNEbits	set	3995
   242   000000                     _OSCCONbits	set	4051
   243   000000                     _T0CON	set	4053
   244   000000                     _PIE1bits	set	3997
   245   000000                     _PIR1bits	set	3998
   246   000000                     _ADCON1	set	4033
   247   000000                     _ADCON0	set	4034
   248   000000                     _SSPCON2bits	set	4037
   249   000000                     _SSPCON1bits	set	4038
   250   000000                     _SSPSTATbits	set	4039
   251   000000                     _TMR2	set	4044
   252   000000                     _T2CON	set	4042
   253   000000                     _T1CON	set	4045
   254   000000                     _SSPBUF	set	4041
   255   000000                     _SSPADD	set	4040
   256   000000                     _TRISDbits	set	3989
   257   000000                     _TRISCbits	set	3988
   258   000000                     _TRISBbits	set	3987
   259   000000                     _INTCON3bits	set	4080
   260   000000                     _INTCONbits	set	4082
   261   000000                     _RCONbits	set	4048
   262   000000                     _PIE2bits	set	4000
   263   000000                     _PIR2bits	set	4001
   264   000000                     _T3CON	set	4017
   265   000000                     _EECON1bits	set	4006
   266   000000                     _RCSTA1	set	4011
   267   000000                     _TXSTA1	set	4012
   268   000000                     _LATDbits	set	3980
   269                           
   270                           	psect	smallconst
   271   000600                     __psmallconst:
   272                           	callstack 0
   273   000600  00                 	db	0
   274   000601                     STR_1:
   275   000601  54                 	db	84	;'T'
   276   000602  68                 	db	104	;'h'
   277   000603  69                 	db	105	;'i'
   278   000604  73                 	db	115	;'s'
   279   000605  20                 	db	32
   280   000606  69                 	db	105	;'i'
   281   000607  73                 	db	115	;'s'
   282   000608  20                 	db	32
   283   000609  45                 	db	69	;'E'
   284   00060A  74                 	db	116	;'t'
   285   00060B  68                 	db	104	;'h'
   286   00060C  65                 	db	101	;'e'
   287   00060D  72                 	db	114	;'r'
   288   00060E  6E                 	db	110	;'n'
   289   00060F  65                 	db	101	;'e'
   290   000610  74                 	db	116	;'t'
   291   000611  20                 	db	32
   292   000612  70                 	db	112	;'p'
   293   000613  72                 	db	114	;'r'
   294   000614  6F                 	db	111	;'o'
   295   000615  74                 	db	116	;'t'
   296   000616  6F                 	db	111	;'o'
   297   000617  63                 	db	99	;'c'
   298   000618  6F                 	db	111	;'o'
   299   000619  6C                 	db	108	;'l'
   300   00061A  20                 	db	32
   301   00061B  74                 	db	116	;'t'
   302   00061C  65                 	db	101	;'e'
   303   00061D  73                 	db	115	;'s'
   304   00061E  74                 	db	116	;'t'
   305   00061F  20                 	db	32
   306   000620  66                 	db	102	;'f'
   307   000621  69                 	db	105	;'i'
   308   000622  72                 	db	114	;'r'
   309   000623  6D                 	db	109	;'m'
   310   000624  77                 	db	119	;'w'
   311   000625  61                 	db	97	;'a'
   312   000626  72                 	db	114	;'r'
   313   000627  65                 	db	101	;'e'
   314   000628  21                 	db	33
   315   000629  0D                 	db	13
   316   00062A  0A                 	db	10
   317   00062B  00                 	db	0
   318   00062C  57                 	db	87	;'W'
   319   00062D  35                 	db	53	;'5'
   320   00062E  35                 	db	53	;'5'
   321   00062F  30                 	db	48	;'0'
   322   000630  30                 	db	48	;'0'
   323   000631  20                 	db	32
   324   000632  49                 	db	73	;'I'
   325   000633  6E                 	db	110	;'n'
   326   000634  69                 	db	105	;'i'
   327   000635  74                 	db	116	;'t'
   328   000636  20                 	db	32
   329   000637  43                 	db	67	;'C'
   330   000638  6F                 	db	111	;'o'
   331   000639  6D                 	db	109	;'m'
   332   00063A  70                 	db	112	;'p'
   333   00063B  6C                 	db	108	;'l'
   334   00063C  65                 	db	101	;'e'
   335   00063D  74                 	db	116	;'t'
   336   00063E  65                 	db	101	;'e'
   337   00063F  21                 	db	33
   338   000640  0A                 	db	10
   339   000641  00                 	db	0
   340   000642  57                 	db	87	;'W'
   341   000643  35                 	db	53	;'5'
   342   000644  35                 	db	53	;'5'
   343   000645  30                 	db	48	;'0'
   344   000646  30                 	db	48	;'0'
   345   000647  2D                 	db	45
   346   000648  3E                 	db	62	;'>'
   347   000649  25                 	db	37
   348   00064A  64                 	db	100	;'d'
   349   00064B  0A                 	db	10
   350   00064C  00                 	db	0
   351   00064D  00                 	db	0	; dummy byte at the end
   352   000000                     
   353                           ; #config settings
   354                           
   355                           	psect	cinit
   356   00231C                     __pcinit:
   357                           	callstack 0
   358   00231C                     start_initialization:
   359                           	callstack 0
   360   00231C                     __initialization:
   361                           	callstack 0
   362                           
   363                           ; Initialize objects allocated to BANK1 (22 bytes)
   364                           ; load TBLPTR registers with __pidataBANK1
   365   00231C  0EB0               	movlw	low __pidataBANK1
   366   00231E  6EF6               	movwf	tblptrl,c
   367   002320  0E29               	movlw	high __pidataBANK1
   368   002322  6EF7               	movwf	tblptrh,c
   369   002324  0E00               	movlw	low (__pidataBANK1 shr (0+16))
   370   002326  6EF8               	movwf	tblptru,c
   371   002328  EE01  F000         	lfsr	0,__pdataBANK1
   372   00232C  EE10 F016          	lfsr	1,22
   373   002330                     copy_data0:
   374   002330  0009               	tblrd		*+
   375   002332  CFF5 FFEE          	movff	tablat,postinc0
   376   002336  50E5               	movf	postdec1,w,c
   377   002338  50E1               	movf	fsr1l,w,c
   378   00233A  E1FA               	bnz	copy_data0
   379                           
   380                           ; Initialize objects allocated to BANK0 (24 bytes)
   381                           ; load TBLPTR registers with __pidataBANK0
   382   00233C  0E80               	movlw	low __pidataBANK0
   383   00233E  6EF6               	movwf	tblptrl,c
   384   002340  0E29               	movlw	high __pidataBANK0
   385   002342  6EF7               	movwf	tblptrh,c
   386   002344  0E00               	movlw	low (__pidataBANK0 shr (0+16))
   387   002346  6EF8               	movwf	tblptru,c
   388   002348  EE00  F0E6         	lfsr	0,__pdataBANK0
   389   00234C  EE10 F018          	lfsr	1,24
   390   002350                     copy_data1:
   391   002350  0009               	tblrd		*+
   392   002352  CFF5 FFEE          	movff	tablat,postinc0
   393   002356  50E5               	movf	postdec1,w,c
   394   002358  50E1               	movf	fsr1l,w,c
   395   00235A  E1FA               	bnz	copy_data1
   396                           
   397                           ; Initialize objects allocated to COMRAM (8 bytes)
   398                           ; load TBLPTR registers with __pidataCOMRAM
   399   00235C  0E70               	movlw	low __pidataCOMRAM
   400   00235E  6EF6               	movwf	tblptrl,c
   401   002360  0E2A               	movlw	high __pidataCOMRAM
   402   002362  6EF7               	movwf	tblptrh,c
   403   002364  0E00               	movlw	low (__pidataCOMRAM shr (0+16))
   404   002366  6EF8               	movwf	tblptru,c
   405   002368  EE00  F065         	lfsr	0,__pdataCOMRAM
   406   00236C  EE10 F008          	lfsr	1,8
   407   002370                     copy_data2:
   408   002370  0009               	tblrd		*+
   409   002372  CFF5 FFEE          	movff	tablat,postinc0
   410   002376  50E5               	movf	postdec1,w,c
   411   002378  50E1               	movf	fsr1l,w,c
   412   00237A  E1FA               	bnz	copy_data2
   413                           
   414                           ; Clear objects allocated to BANK1 (18 bytes)
   415   00237C  EE01  F016         	lfsr	0,__pbssBANK1
   416   002380  0E12               	movlw	18
   417   002382                     clear_0:
   418   002382  6AEE               	clrf	postinc0,c
   419   002384  06E8               	decf	wreg,f,c
   420   002386  E1FD               	bnz	clear_0
   421                           
   422                           ; Clear objects allocated to BANK0 (102 bytes)
   423   002388  EE00  F080         	lfsr	0,__pbssBANK0
   424   00238C  0E66               	movlw	102
   425   00238E                     clear_1:
   426   00238E  6AEE               	clrf	postinc0,c
   427   002390  06E8               	decf	wreg,f,c
   428   002392  E1FD               	bnz	clear_1
   429                           
   430                           ; Clear objects allocated to COMRAM (76 bytes)
   431   002394  EE00  F001         	lfsr	0,__pbssCOMRAM
   432   002398  0E4C               	movlw	76
   433   00239A                     clear_2:
   434   00239A  6AEE               	clrf	postinc0,c
   435   00239C  06E8               	decf	wreg,f,c
   436   00239E  E1FD               	bnz	clear_2
   437   0023A0                     end_of_initialization:
   438                           	callstack 0
   439   0023A0                     __end_of__initialization:
   440                           	callstack 0
   441   0023A0  906D               	bcf	int$flags,0,c	;clear compiler interrupt flag (level 1)
   442   0023A2  926D               	bcf	int$flags,1,c	;clear compiler interrupt flag (level 2)
   443   0023A4  0E00               	movlw	low (__Lmediumconst shr (0+16))
   444   0023A6  6EF8               	movwf	tblptru,c
   445   0023A8  0100               	movlb	0
   446   0023AA  EF78  F009         	goto	_main	;jump to C main() function
   447                           
   448                           	psect	bssCOMRAM
   449   000001                     __pbssCOMRAM:
   450                           	callstack 0
   451   000001                     _real_rtc_data:
   452                           	callstack 0
   453   000001                     	ds	7
   454   000008                     _CONTINUE_PRESSED_TIME:
   455                           	callstack 0
   456   000008                     	ds	2
   457   00000A                     _continue_pressed_cnt:
   458                           	callstack 0
   459   00000A                     	ds	2
   460   00000C                     _reset_btn_pressed_cnt:
   461                           	callstack 0
   462   00000C                     	ds	2
   463   00000E                     _sel_btn_pressed_cnt:
   464                           	callstack 0
   465   00000E                     	ds	2
   466   000010                     _down_btn_pressed_cnt:
   467                           	callstack 0
   468   000010                     	ds	2
   469   000012                     _up_btn_pressed_cnt:
   470                           	callstack 0
   471   000012                     	ds	2
   472   000014                     _hour_btn_pressed_cnt:
   473                           	callstack 0
   474   000014                     	ds	2
   475   000016                     _BLINK_TIME:
   476                           	callstack 0
   477   000016                     	ds	2
   478   000018                     _led_blink_cnt:
   479                           	callstack 0
   480   000018                     	ds	2
   481   00001A                     _W5500_Interrupt:
   482                           	callstack 0
   483   00001A                     	ds	1
   484   00001B                     _S7_Data:
   485                           	callstack 0
   486   00001B                     	ds	1
   487   00001C                     _S6_Data:
   488                           	callstack 0
   489   00001C                     	ds	1
   490   00001D                     _S5_Data:
   491                           	callstack 0
   492   00001D                     	ds	1
   493   00001E                     _S4_Data:
   494                           	callstack 0
   495   00001E                     	ds	1
   496   00001F                     _S3_Data:
   497                           	callstack 0
   498   00001F                     	ds	1
   499   000020                     _S2_Data:
   500                           	callstack 0
   501   000020                     	ds	1
   502   000021                     _S1_Data:
   503                           	callstack 0
   504   000021                     	ds	1
   505   000022                     _S0_Data:
   506                           	callstack 0
   507   000022                     	ds	1
   508   000023                     _S7_State:
   509                           	callstack 0
   510   000023                     	ds	1
   511   000024                     _S6_State:
   512                           	callstack 0
   513   000024                     	ds	1
   514   000025                     _S5_State:
   515                           	callstack 0
   516   000025                     	ds	1
   517   000026                     _S4_State:
   518                           	callstack 0
   519   000026                     	ds	1
   520   000027                     _S3_State:
   521                           	callstack 0
   522   000027                     	ds	1
   523   000028                     _S2_State:
   524                           	callstack 0
   525   000028                     	ds	1
   526   000029                     _S1_State:
   527                           	callstack 0
   528   000029                     	ds	1
   529   00002A                     _S0_State:
   530                           	callstack 0
   531   00002A                     	ds	1
   532   00002B                     _USART1_Status:
   533                           	callstack 0
   534   00002B                     	ds	1
   535   00002C                     _btn_long_press_verify_flg:
   536                           	callstack 0
   537   00002C                     	ds	1
   538   00002D                     _btn_press_verify_flg:
   539                           	callstack 0
   540   00002D                     	ds	1
   541   00002E                     _BTN_CLICK_EVENT:
   542                           	callstack 0
   543   00002E                     	ds	1
   544   00002F                     _BTN_CLICK_STATE:
   545                           	callstack 0
   546   00002F                     	ds	1
   547   000030                     _blink_cnt:
   548                           	callstack 0
   549   000030                     	ds	1
   550   000031                     _display_cnt:
   551                           	callstack 0
   552   000031                     	ds	1
   553   000032                     _blink_enable_flg:
   554                           	callstack 0
   555   000032                     	ds	1
   556   000033                     _counter_down_comp_cnt:
   557                           	callstack 0
   558   000033                     	ds	1
   559   000034                     _counter_down_comp_flg:
   560                           	callstack 0
   561   000034                     	ds	1
   562   000035                     _counter_seting_flg:
   563                           	callstack 0
   564   000035                     	ds	1
   565   000036                     _counter_skip_flg:
   566                           	callstack 0
   567   000036                     	ds	1
   568   000037                     _counter_direction_flg:
   569                           	callstack 0
   570   000037                     	ds	1
   571   000038                     _counter_enable_flg:
   572                           	callstack 0
   573   000038                     	ds	1
   574   000039                     _counter_up_second:
   575                           	callstack 0
   576   000039                     	ds	1
   577   00003A                     _counter_up_minute:
   578                           	callstack 0
   579   00003A                     	ds	1
   580   00003B                     _counter_up_hour:
   581                           	callstack 0
   582   00003B                     	ds	1
   583   00003C                     _counter_down_set_second:
   584                           	callstack 0
   585   00003C                     	ds	1
   586   00003D                     _counter_down_set_minute:
   587                           	callstack 0
   588   00003D                     	ds	1
   589   00003E                     _counter_down_set_hour:
   590                           	callstack 0
   591   00003E                     	ds	1
   592   00003F                     _counter_down_second:
   593                           	callstack 0
   594   00003F                     	ds	1
   595   000040                     _counter_down_minute:
   596                           	callstack 0
   597   000040                     	ds	1
   598   000041                     _counter_down_hour:
   599                           	callstack 0
   600   000041                     	ds	1
   601   000042                     _rtc_clock_set_mode:
   602                           	callstack 0
   603   000042                     	ds	1
   604   000043                     _rtc_clock_disp_mode:
   605                           	callstack 0
   606   000043                     	ds	1
   607   000044                     _temp_system_state:
   608                           	callstack 0
   609   000044                     	ds	1
   610   000045                     _counter_sec_set_value:
   611                           	callstack 0
   612   000045                     	ds	1
   613   000046                     _counter_min_set_value:
   614                           	callstack 0
   615   000046                     	ds	1
   616   000047                     _counter_hour_set_value:
   617                           	callstack 0
   618   000047                     	ds	1
   619   000048                     _SYSTEM_STATE_FLG:
   620                           	callstack 0
   621   000048                     	ds	1
   622   000049                     _SYSTEM_ACTION_FLG:
   623                           	callstack 0
   624   000049                     	ds	1
   625   00004A                     _int_cnt:
   626                           	callstack 0
   627   00004A                     	ds	1
   628   00004B                     _rtc_hour_ampm_flg:
   629                           	callstack 0
   630   00004B                     	ds	1
   631   00004C                     _rtc_clock_disp_type:
   632                           	callstack 0
   633   00004C                     	ds	1
   634                           
   635                           	psect	dataCOMRAM
   636   000065                     __pdataCOMRAM:
   637                           	callstack 0
   638   000065                     _S7_Mode:
   639                           	callstack 0
   640   000065                     	ds	1
   641   000066                     _S6_Mode:
   642                           	callstack 0
   643   000066                     	ds	1
   644   000067                     _S5_Mode:
   645                           	callstack 0
   646   000067                     	ds	1
   647   000068                     _S4_Mode:
   648                           	callstack 0
   649   000068                     	ds	1
   650   000069                     _S3_Mode:
   651                           	callstack 0
   652   000069                     	ds	1
   653   00006A                     _S2_Mode:
   654                           	callstack 0
   655   00006A                     	ds	1
   656   00006B                     _S1_Mode:
   657                           	callstack 0
   658   00006B                     	ds	1
   659   00006C                     _S0_Mode:
   660                           	callstack 0
   661   00006C                     	ds	1
   662                           
   663                           	psect	bssBANK0
   664   000080                     __pbssBANK0:
   665                           	callstack 0
   666   000080                     _blink_pos:
   667                           	callstack 0
   668   000080                     	ds	8
   669   000088                     _display_datas:
   670                           	callstack 0
   671   000088                     	ds	8
   672   000090                     _IP_Addr:
   673                           	callstack 0
   674   000090                     	ds	4
   675   000094                     _UDP_DPORT:
   676                           	callstack 0
   677   000094                     	ds	2
   678   000096                     _S7_DPort:
   679                           	callstack 0
   680   000096                     	ds	2
   681   000098                     _S6_DPort:
   682                           	callstack 0
   683   000098                     	ds	2
   684   00009A                     _S5_DPort:
   685                           	callstack 0
   686   00009A                     	ds	2
   687   00009C                     _S4_DPort:
   688                           	callstack 0
   689   00009C                     	ds	2
   690   00009E                     _S3_DPort:
   691                           	callstack 0
   692   00009E                     	ds	2
   693   0000A0                     _S2_DPort:
   694                           	callstack 0
   695   0000A0                     	ds	2
   696   0000A2                     _S1_DPort:
   697                           	callstack 0
   698   0000A2                     	ds	2
   699   0000A4                     _S0_DPort:
   700                           	callstack 0
   701   0000A4                     	ds	2
   702   0000A6                     _S7_Port:
   703                           	callstack 0
   704   0000A6                     	ds	2
   705   0000A8                     _S6_Port:
   706                           	callstack 0
   707   0000A8                     	ds	2
   708   0000AA                     _S5_Port:
   709                           	callstack 0
   710   0000AA                     	ds	2
   711   0000AC                     _S4_Port:
   712                           	callstack 0
   713   0000AC                     	ds	2
   714   0000AE                     _S3_Port:
   715                           	callstack 0
   716   0000AE                     	ds	2
   717   0000B0                     _S2_Port:
   718                           	callstack 0
   719   0000B0                     	ds	2
   720   0000B2                     _S1_Port:
   721                           	callstack 0
   722   0000B2                     	ds	2
   723   0000B4                     _S0_Port:
   724                           	callstack 0
   725   0000B4                     	ds	2
   726   0000B6                     _cnt:
   727                           	callstack 0
   728   0000B6                     	ds	2
   729   0000B8                     _reset_btn_released_cnt:
   730                           	callstack 0
   731   0000B8                     	ds	2
   732   0000BA                     _sel_btn_released_cnt:
   733                           	callstack 0
   734   0000BA                     	ds	2
   735   0000BC                     _down_btn_released_cnt:
   736                           	callstack 0
   737   0000BC                     	ds	2
   738   0000BE                     _up_btn_released_cnt:
   739                           	callstack 0
   740   0000BE                     	ds	2
   741   0000C0                     _hour_btn_released_cnt:
   742                           	callstack 0
   743   0000C0                     	ds	2
   744   0000C2                     _set_mode_release_cnt:
   745                           	callstack 0
   746   0000C2                     	ds	2
   747   0000C4                     _S7_DIP:
   748                           	callstack 0
   749   0000C4                     	ds	4
   750   0000C8                     _S6_DIP:
   751                           	callstack 0
   752   0000C8                     	ds	4
   753   0000CC                     _S5_DIP:
   754                           	callstack 0
   755   0000CC                     	ds	4
   756   0000D0                     _S4_DIP:
   757                           	callstack 0
   758   0000D0                     	ds	4
   759   0000D4                     _S3_DIP:
   760                           	callstack 0
   761   0000D4                     	ds	4
   762   0000D8                     _S2_DIP:
   763                           	callstack 0
   764   0000D8                     	ds	4
   765   0000DC                     _S1_DIP:
   766                           	callstack 0
   767   0000DC                     	ds	4
   768   0000E0                     _S0_DIP:
   769                           	callstack 0
   770   0000E0                     	ds	4
   771   0000E4                     _long_pressed_cnt:
   772                           	callstack 0
   773   0000E4                     	ds	2
   774                           
   775                           	psect	dataBANK0
   776   0000E6                     __pdataBANK0:
   777                           	callstack 0
   778   0000E6                     OpenS5500@F2852:
   779                           	callstack 0
   780   0000E6                     	ds	4
   781   0000EA                     OpenS5500@F2850:
   782                           	callstack 0
   783   0000EA                     	ds	4
   784   0000EE                     OpenS5500@F2848:
   785                           	callstack 0
   786   0000EE                     	ds	4
   787   0000F2                     OpenW5500@F2679:
   788                           	callstack 0
   789   0000F2                     	ds	4
   790   0000F6                     OpenW5500@F2677:
   791                           	callstack 0
   792   0000F6                     	ds	4
   793   0000FA                     OpenW5500@F2675:
   794                           	callstack 0
   795   0000FA                     	ds	4
   796                           
   797                           	psect	bssBANK1
   798   000116                     __pbssBANK1:
   799                           	callstack 0
   800   000116                     _Phy_Addr:
   801                           	callstack 0
   802   000116                     	ds	6
   803   00011C                     _UDP_DIPR:
   804                           	callstack 0
   805   00011C                     	ds	4
   806   000120                     _Sub_Mask:
   807                           	callstack 0
   808   000120                     	ds	4
   809   000124                     _Gateway_IP:
   810                           	callstack 0
   811   000124                     	ds	4
   812                           
   813                           	psect	dataBANK1
   814   000100                     __pdataBANK1:
   815                           	callstack 0
   816   000100                     OpenS5500@F2846:
   817                           	callstack 0
   818   000100                     	ds	6
   819   000106                     OpenW5500@F2673:
   820                           	callstack 0
   821   000106                     	ds	6
   822   00010C                     _rtc_default_values:
   823                           	callstack 0
   824   00010C                     	ds	10
   825                           
   826                           	psect	cstackBANK1
   827   000128                     __pcstackBANK1:
   828                           	callstack 0
   829   000128                     ??_VerifyButtons:
   830   000128                     ___awdiv@counter:
   831                           	callstack 0
   832   000128                     Ds1307HMSRead@ds1307_date_datas:
   833                           	callstack 0
   834                           
   835                           ; 3 bytes @ 0x0
   836   000128                     	ds	1
   837   000129                     ___awdiv@sign:
   838                           	callstack 0
   839                           
   840                           ; 1 bytes @ 0x1
   841   000129                     	ds	1
   842   00012A                     ___awdiv@quotient:
   843                           	callstack 0
   844                           
   845                           ; 2 bytes @ 0x2
   846   00012A                     	ds	2
   847   00012C                     ReadCounter@counter_datas:
   848                           	callstack 0
   849                           
   850                           ; 6 bytes @ 0x4
   851   00012C                     	ds	6
   852   000132                     UpdateDisplay@update_datas:
   853                           	callstack 0
   854                           
   855                           ; 2 bytes @ 0xA
   856   000132                     	ds	2
   857   000134                     UpdateDisplay@start_position:
   858                           	callstack 0
   859                           
   860                           ; 1 bytes @ 0xC
   861   000134                     	ds	1
   862   000135                     UpdateDisplay@end_position:
   863                           	callstack 0
   864                           
   865                           ; 1 bytes @ 0xD
   866   000135                     	ds	1
   867   000136                     UpdateDisplay@i:
   868                           	callstack 0
   869                           
   870                           ; 1 bytes @ 0xE
   871   000136                     	ds	1
   872   000137                     ??_main:
   873                           
   874                           ; 1 bytes @ 0xF
   875   000137                     	ds	2
   876                           
   877                           	psect	cstackBANK0
   878   0000FE                     __pcstackBANK0:
   879                           	callstack 0
   880   0000FE                     ?_ReadCounter:
   881                           	callstack 0
   882   0000FE                     ActionButtons@temp:
   883                           	callstack 0
   884                           
   885                           ; 1 bytes @ 0x0
   886   0000FE                     	ds	2
   887                           
   888                           	psect	cstackCOMRAM
   889   00004D                     __pcstackCOMRAM:
   890                           	callstack 0
   891   00004D                     ?___lwdiv:
   892                           	callstack 0
   893   00004D                     TLC5917Write@data:
   894                           	callstack 0
   895   00004D                     ___lwdiv@dividend:
   896                           	callstack 0
   897   00004D                     i2WriteTimer0@timer0:
   898                           	callstack 0
   899                           
   900                           ; 2 bytes @ 0x0
   901   00004D                     	ds	2
   902   00004F                     ??_TLC5917Write:
   903   00004F                     ___lwdiv@divisor:
   904                           	callstack 0
   905   00004F                     i2WriteTimer0@timer:
   906                           	callstack 0
   907                           
   908                           ; 2 bytes @ 0x2
   909   00004F                     	ds	1
   910   000050                     TLC5917Write@temp:
   911                           	callstack 0
   912                           
   913                           ; 2 bytes @ 0x3
   914   000050                     	ds	1
   915   000051                     ___lwdiv@quotient:
   916                           	callstack 0
   917                           
   918                           ; 2 bytes @ 0x4
   919   000051                     	ds	1
   920   000052                     TLC5917Write@i:
   921                           	callstack 0
   922                           
   923                           ; 1 bytes @ 0x5
   924   000052                     	ds	1
   925   000053                     ??_ScanDisplay:
   926   000053                     ___lwdiv@counter:
   927                           	callstack 0
   928                           
   929                           ; 1 bytes @ 0x6
   930   000053                     	ds	4
   931   000057                     ScanDisplay@temp:
   932                           	callstack 0
   933                           
   934                           ; 1 bytes @ 0xA
   935   000057                     	ds	1
   936   000058                     ??_high_isr:
   937                           
   938                           ; 1 bytes @ 0xB
   939   000058                     	ds	4
   940   00005C                     ??_low_isr:
   941                           
   942                           ; 1 bytes @ 0xF
   943   00005C                     	ds	3
   944   00005F                     ??_LEDProcess:
   945   00005F                     ??_MarkDisplay:
   946   00005F                     ??_DecValProcess:
   947   00005F                     ?___awdiv:
   948                           	callstack 0
   949   00005F                     ?___awmod:
   950                           	callstack 0
   951   00005F                     I2cWrite@data:
   952                           	callstack 0
   953   00005F                     I2cRead@ack:
   954                           	callstack 0
   955   00005F                     OpenTimer0@config:
   956                           	callstack 0
   957   00005F                     OpenDisplay@i:
   958                           	callstack 0
   959   00005F                     BlinkDisable@i:
   960                           	callstack 0
   961   00005F                     Write1USART@data:
   962                           	callstack 0
   963   00005F                     WriteTimer0@timer0:
   964                           	callstack 0
   965   00005F                     Open1USART@spbrg:
   966                           	callstack 0
   967   00005F                     ___awdiv@dividend:
   968                           	callstack 0
   969   00005F                     ___awmod@dividend:
   970                           	callstack 0
   971                           
   972                           ; 2 bytes @ 0x12
   973   00005F                     	ds	1
   974   000060                     ??_Ds1307HourSet:
   975   000060                     Ds1307MinuteSet@minute_data:
   976                           	callstack 0
   977   000060                     Ds1307SecondSet@second_data:
   978                           	callstack 0
   979   000060                     I2cRead@receive:
   980                           	callstack 0
   981   000060                     Ds1307Write@write_datas:
   982                           	callstack 0
   983   000060                     Puts1USART@data:
   984                           	callstack 0
   985                           
   986                           ; 2 bytes @ 0x13
   987   000060                     	ds	1
   988   000061                     ?_Ds1307HMSRead:
   989                           	callstack 0
   990   000061                     Ds1307HourSet@hour_data:
   991                           	callstack 0
   992   000061                     MarkDisplay@mark:
   993                           	callstack 0
   994   000061                     Open1USART@config:
   995                           	callstack 0
   996   000061                     WriteTimer0@timer:
   997                           	callstack 0
   998   000061                     ___awdiv@divisor:
   999                           	callstack 0
  1000   000061                     ___awmod@divisor:
  1001                           	callstack 0
  1002                           
  1003                           ; 2 bytes @ 0x14
  1004   000061                     	ds	1
  1005   000062                     ??_Ds1307Write:
  1006   000062                     Ds1307HourSet@hour_temp:
  1007                           	callstack 0
  1008                           
  1009                           ; 1 bytes @ 0x15
  1010   000062                     	ds	1
  1011   000063                     ??_ActionButtons:
  1012   000063                     Ds1307Write@hour_temp:
  1013                           	callstack 0
  1014   000063                     ___awmod@counter:
  1015                           	callstack 0
  1016                           
  1017                           ; 1 bytes @ 0x16
  1018   000063                     	ds	1
  1019   000064                     ___awmod@sign:
  1020                           	callstack 0
  1021                           
  1022                           ; 1 bytes @ 0x17
  1023   000064                     	ds	1
  1024   000065                     
  1025                           ; 1 bytes @ 0x18
  1026 ;;
  1027 ;;Main: autosize = 0, tempsize = 2, incstack = 0, save=0
  1028 ;;
  1029 ;; *************** function _main *****************
  1030 ;; Defined at:
  1031 ;;		line 24 in file "Main.c"
  1032 ;; Parameters:    Size  Location     Type
  1033 ;;		None
  1034 ;; Auto vars:     Size  Location     Type
  1035 ;;		None
  1036 ;; Return value:  Size  Location     Type
  1037 ;;                  1    wreg      void 
  1038 ;; Registers used:
  1039 ;;		wreg, fsr1l, fsr1h, fsr2l, fsr2h, status,2, status,0, tblptrl, tblptrh, tblptru, cstack
  1040 ;; Tracked objects:
  1041 ;;		On entry : 0/0
  1042 ;;		On exit  : 0/0
  1043 ;;		Unchanged: 0/0
  1044 ;; Data sizes:     COMRAM   BANK0   BANK1   BANK2   BANK3   BANK4   BANK5
  1045 ;;      Params:         0       0       0       0       0       0       0
  1046 ;;      Locals:         0       0       0       0       0       0       0
  1047 ;;      Temps:          0       0       2       0       0       0       0
  1048 ;;      Totals:         0       0       2       0       0       0       0
  1049 ;;Total ram usage:        2 bytes
  1050 ;; Hardware stack levels required when called: 11
  1051 ;; This function calls:
  1052 ;;		_BlinkDisable
  1053 ;;		_DeviceInit
  1054 ;;		_Ds1307HMSRead
  1055 ;;		_LEDProcess
  1056 ;;		_ReadCounter
  1057 ;;		_UpdateDisplay
  1058 ;;		_VerifyButtons
  1059 ;; This function is called by:
  1060 ;;		Startup code after reset
  1061 ;; This function uses a non-reentrant model
  1062 ;;
  1063                           
  1064                           	psect	text0
  1065   0012F0                     __ptext0:
  1066                           	callstack 0
  1067   0012F0                     _main:
  1068                           	callstack 20
  1069   0012F0                     
  1070                           ;Main.c: 28:     DeviceInit();
  1071   0012F0  EC59  F013         	call	_DeviceInit	;wreg free
  1072   0012F4                     l10199:
  1073                           
  1074                           ;Main.c: 31:     {;Main.c: 32:         VerifyButtons();
  1075   0012F4  ECB0  F006         	call	_VerifyButtons	;wreg free
  1076   0012F8                     
  1077                           ;Main.c: 34:         if( counter_down_comp_flg ) {
  1078   0012F8  5034               	movf	_counter_down_comp_flg^0,w,c
  1079   0012FA  B4D8               	btfsc	status,2,c
  1080   0012FC  EF82  F009         	goto	u8021
  1081   001300  EF84  F009         	goto	u8020
  1082   001304                     u8021:
  1083   001304  EF8E  F009         	goto	l10205
  1084   001308                     u8020:
  1085   001308                     
  1086                           ;Main.c: 35:             BLINK_TIME = 200; blink_enable_flg = 5; counter_skip_flg = 0;
  1087   001308  0E00               	movlw	0
  1088   00130A  6E17               	movwf	(_BLINK_TIME+1)^0,c
  1089   00130C  0EC8               	movlw	200
  1090   00130E  6E16               	movwf	_BLINK_TIME^0,c
  1091   001310  0E05               	movlw	5
  1092   001312  6E32               	movwf	_blink_enable_flg^0,c
  1093   001314  0E00               	movlw	0
  1094   001316  6E36               	movwf	_counter_skip_flg^0,c
  1095                           
  1096                           ;Main.c: 36:         }
  1097   001318  EF9D  F009         	goto	l10211
  1098   00131C                     l10205:
  1099                           
  1100                           ;Main.c: 38:             BLINK_TIME = 300;
  1101   00131C  0E01               	movlw	1
  1102   00131E  6E17               	movwf	(_BLINK_TIME+1)^0,c
  1103   001320  0E2C               	movlw	44
  1104   001322  6E16               	movwf	_BLINK_TIME^0,c
  1105   001324                     
  1106                           ;Main.c: 39:             if( SYSTEM_STATE_FLG == 203 ) blink_enable_flg = 0;
  1107   001324  0ECB               	movlw	203
  1108   001326  1848               	xorwf	_SYSTEM_STATE_FLG^0,w,c
  1109   001328  A4D8               	btfss	status,2,c
  1110   00132A  EF99  F009         	goto	u8031
  1111   00132E  EF9B  F009         	goto	u8030
  1112   001332                     u8031:
  1113   001332  EF9D  F009         	goto	l10211
  1114   001336                     u8030:
  1115   001336  0E00               	movlw	0
  1116   001338  6E32               	movwf	_blink_enable_flg^0,c
  1117   00133A                     l10211:
  1118                           
  1119                           ;Main.c: 42:         if( !SYSTEM_ACTION_FLG.DISP_UPDATE_ENABLE ) continue;
  1120   00133A  B049               	btfsc	_SYSTEM_ACTION_FLG^0,0,c	;volatile
  1121   00133C  EFA2  F009         	goto	u8041
  1122   001340  EFA4  F009         	goto	u8040
  1123   001344                     u8041:
  1124   001344  EFA6  F009         	goto	l331
  1125   001348                     u8040:
  1126   001348  EF7A  F009         	goto	l10199
  1127   00134C                     l331:
  1128                           
  1129                           ;Main.c: 43:         SYSTEM_ACTION_FLG.DISP_UPDATE_ENABLE = 0;
  1130   00134C  9049               	bcf	_SYSTEM_ACTION_FLG^0,0,c	;volatile
  1131   00134E                     
  1132                           ;Main.c: 45:         LEDProcess();
  1133   00134E  ECF1  F00D         	call	_LEDProcess	;wreg free
  1134                           
  1135                           ;Main.c: 47:         switch( blink_enable_flg ) {
  1136   001352  EFE2  F009         	goto	l10259
  1137   001356                     l10217:
  1138                           
  1139                           ; BSR set to: 1
  1140   001356  EC71  F014         	call	_BlinkDisable	;wreg free
  1141   00135A  EF19  F00A         	goto	l10267
  1142   00135E                     l10219:
  1143                           
  1144                           ; BSR set to: 1
  1145   00135E  EC71  F014         	call	_BlinkDisable	;wreg free
  1146   001362                     l10221:
  1147   001362  0E01               	movlw	1
  1148   001364  0100               	movlb	0	; () banked
  1149   001366  6F86               	movwf	(_blink_pos+6)& (0+255),b
  1150   001368  EF19  F00A         	goto	l10267
  1151   00136C                     l10223:
  1152                           
  1153                           ; BSR set to: 1
  1154   00136C  EC71  F014         	call	_BlinkDisable	;wreg free
  1155   001370  0E01               	movlw	1
  1156   001372  0100               	movlb	0	; () banked
  1157   001374  6F80               	movwf	_blink_pos& (0+255),b
  1158   001376                     
  1159                           ; BSR set to: 0
  1160   001376  0E01               	movlw	1
  1161   001378  6F81               	movwf	(_blink_pos+1)& (0+255),b
  1162   00137A  EF19  F00A         	goto	l10267
  1163   00137E                     l10229:
  1164                           
  1165                           ; BSR set to: 1
  1166   00137E  EC71  F014         	call	_BlinkDisable	;wreg free
  1167   001382  0E01               	movlw	1
  1168   001384  0100               	movlb	0	; () banked
  1169   001386  6F82               	movwf	(_blink_pos+2)& (0+255),b
  1170   001388                     
  1171                           ; BSR set to: 0
  1172   001388  0E01               	movlw	1
  1173   00138A  6F83               	movwf	(_blink_pos+3)& (0+255),b
  1174   00138C  EF19  F00A         	goto	l10267
  1175   001390                     l10235:
  1176                           
  1177                           ; BSR set to: 1
  1178   001390  EC71  F014         	call	_BlinkDisable	;wreg free
  1179   001394  0E01               	movlw	1
  1180   001396  0100               	movlb	0	; () banked
  1181   001398  6F84               	movwf	(_blink_pos+4)& (0+255),b
  1182   00139A                     
  1183                           ; BSR set to: 0
  1184   00139A  0E01               	movlw	1
  1185   00139C  6F85               	movwf	(_blink_pos+5)& (0+255),b
  1186   00139E  EF19  F00A         	goto	l10267
  1187   0013A2                     l10241:
  1188                           
  1189                           ; BSR set to: 1
  1190   0013A2  EC71  F014         	call	_BlinkDisable	;wreg free
  1191   0013A6  0E01               	movlw	1
  1192   0013A8  0100               	movlb	0	; () banked
  1193   0013AA  6F80               	movwf	_blink_pos& (0+255),b
  1194   0013AC                     
  1195                           ; BSR set to: 0
  1196   0013AC  0E01               	movlw	1
  1197   0013AE  6F81               	movwf	(_blink_pos+1)& (0+255),b
  1198   0013B0                     
  1199                           ; BSR set to: 0
  1200   0013B0  0E01               	movlw	1
  1201   0013B2  6F82               	movwf	(_blink_pos+2)& (0+255),b
  1202   0013B4                     
  1203                           ; BSR set to: 0
  1204   0013B4  0E01               	movlw	1
  1205   0013B6  6F83               	movwf	(_blink_pos+3)& (0+255),b
  1206   0013B8                     
  1207                           ; BSR set to: 0
  1208   0013B8  0E01               	movlw	1
  1209   0013BA  6F84               	movwf	(_blink_pos+4)& (0+255),b
  1210   0013BC                     
  1211                           ; BSR set to: 0
  1212   0013BC  0E01               	movlw	1
  1213   0013BE  6F85               	movwf	(_blink_pos+5)& (0+255),b
  1214   0013C0  EFB1  F009         	goto	l10221
  1215   0013C4                     l10259:
  1216   0013C4  5032               	movf	_blink_enable_flg^0,w,c
  1217   0013C6  0101               	movlb	1	; () banked
  1218   0013C8  6F37               	movwf	??_main& (0+255),b
  1219   0013CA  6B38               	clrf	(??_main+1)& (0+255),b
  1220                           
  1221                           ; Switch on 2 bytes has been partitioned into a top level switch of size 1, and 1 sub-sw
      +                          itches
  1222                           ; Switch size 1, requested type "simple"
  1223                           ; Number of cases is 1, Range of values is 0 to 0
  1224                           ; switch strategies available:
  1225                           ; Name         Instructions Cycles
  1226                           ; simple_byte            4     3 (average)
  1227                           ;	Chosen strategy is simple_byte
  1228   0013CC  5138               	movf	(??_main+1)& (0+255),w,b
  1229   0013CE  0A00               	xorlw	0	; case 0
  1230   0013D0  B4D8               	btfsc	status,2,c
  1231   0013D2  EFED  F009         	goto	l10627
  1232   0013D6  EF19  F00A         	goto	l10267
  1233   0013DA                     l10627:
  1234                           
  1235                           ; BSR set to: 1
  1236                           ; Switch size 1, requested type "simple"
  1237                           ; Number of cases is 6, Range of values is 0 to 5
  1238                           ; switch strategies available:
  1239                           ; Name         Instructions Cycles
  1240                           ; simple_byte           19    10 (average)
  1241                           ;	Chosen strategy is simple_byte
  1242   0013DA  5137               	movf	??_main& (0+255),w,b
  1243   0013DC  0A00               	xorlw	0	; case 0
  1244   0013DE  B4D8               	btfsc	status,2,c
  1245   0013E0  EFAB  F009         	goto	l10217
  1246   0013E4  0A01               	xorlw	1	; case 1
  1247   0013E6  B4D8               	btfsc	status,2,c
  1248   0013E8  EFAF  F009         	goto	l10219
  1249   0013EC  0A03               	xorlw	3	; case 2
  1250   0013EE  B4D8               	btfsc	status,2,c
  1251   0013F0  EFB6  F009         	goto	l10223
  1252   0013F4  0A01               	xorlw	1	; case 3
  1253   0013F6  B4D8               	btfsc	status,2,c
  1254   0013F8  EFBF  F009         	goto	l10229
  1255   0013FC  0A07               	xorlw	7	; case 4
  1256   0013FE  B4D8               	btfsc	status,2,c
  1257   001400  EFC8  F009         	goto	l10235
  1258   001404  0A01               	xorlw	1	; case 5
  1259   001406  B4D8               	btfsc	status,2,c
  1260   001408  EFD1  F009         	goto	l10241
  1261   00140C  EF19  F00A         	goto	l10267
  1262   001410                     l10261:
  1263                           
  1264                           ; BSR set to: 1
  1265   001410  EC44  F00F         	call	_Ds1307HMSRead	;wreg free
  1266   001414  C061  F132         	movff	?_Ds1307HMSRead,UpdateDisplay@update_datas
  1267   001418  C062  F133         	movff	?_Ds1307HMSRead+1,UpdateDisplay@update_datas+1
  1268   00141C  0E01               	movlw	1
  1269   00141E  0101               	movlb	1	; () banked
  1270   001420  6F34               	movwf	UpdateDisplay@start_position& (0+255),b
  1271   001422  0E06               	movlw	6
  1272   001424  6F35               	movwf	UpdateDisplay@end_position& (0+255),b
  1273   001426  ECD2  F013         	call	_UpdateDisplay	;wreg free
  1274   00142A  0E00               	movlw	0
  1275   00142C  6E32               	movwf	_blink_enable_flg^0,c
  1276   00142E  EF2B  F00A         	goto	l10269
  1277   001432                     l10267:
  1278   001432  5048               	movf	_SYSTEM_STATE_FLG^0,w,c
  1279   001434  0101               	movlb	1	; () banked
  1280   001436  6F37               	movwf	??_main& (0+255),b
  1281   001438  6B38               	clrf	(??_main+1)& (0+255),b
  1282                           
  1283                           ; Switch on 2 bytes has been partitioned into a top level switch of size 1, and 1 sub-sw
      +                          itches
  1284                           ; Switch size 1, requested type "simple"
  1285                           ; Number of cases is 1, Range of values is 0 to 0
  1286                           ; switch strategies available:
  1287                           ; Name         Instructions Cycles
  1288                           ; simple_byte            4     3 (average)
  1289                           ;	Chosen strategy is simple_byte
  1290   00143A  5138               	movf	(??_main+1)& (0+255),w,b
  1291   00143C  0A00               	xorlw	0	; case 0
  1292   00143E  B4D8               	btfsc	status,2,c
  1293   001440  EF24  F00A         	goto	l10629
  1294   001444  EF2B  F00A         	goto	l10269
  1295   001448                     l10629:
  1296                           
  1297                           ; BSR set to: 1
  1298                           ; Switch size 1, requested type "simple"
  1299                           ; Number of cases is 1, Range of values is 100 to 100
  1300                           ; switch strategies available:
  1301                           ; Name         Instructions Cycles
  1302                           ; simple_byte            4     3 (average)
  1303                           ;	Chosen strategy is simple_byte
  1304   001448  5137               	movf	??_main& (0+255),w,b
  1305   00144A  0A64               	xorlw	100	; case 100
  1306   00144C  B4D8               	btfsc	status,2,c
  1307   00144E  EF08  F00A         	goto	l10261
  1308   001452  EF2B  F00A         	goto	l10269
  1309   001456                     l10269:
  1310                           
  1311                           ;Main.c: 62:         if( counter_skip_flg ) continue;
  1312   001456  5036               	movf	_counter_skip_flg^0,w,c
  1313   001458  B4D8               	btfsc	status,2,c
  1314   00145A  EF31  F00A         	goto	u8051
  1315   00145E  EF33  F00A         	goto	u8050
  1316   001462                     u8051:
  1317   001462  EF44  F00A         	goto	l10277
  1318   001466                     u8050:
  1319   001466  EF7A  F009         	goto	l10199
  1320   00146A                     l348:
  1321   00146A                     l10273:
  1322                           
  1323                           ; BSR set to: 1
  1324   00146A  ECDD  F00B         	call	_ReadCounter	;wreg free
  1325   00146E  C0FE  F132         	movff	?_ReadCounter,UpdateDisplay@update_datas
  1326   001472  C0FF  F133         	movff	?_ReadCounter+1,UpdateDisplay@update_datas+1
  1327   001476  0E01               	movlw	1
  1328   001478  0101               	movlb	1	; () banked
  1329   00147A  6F34               	movwf	UpdateDisplay@start_position& (0+255),b
  1330   00147C  0E06               	movlw	6
  1331   00147E  6F35               	movwf	UpdateDisplay@end_position& (0+255),b
  1332   001480  ECD2  F013         	call	_UpdateDisplay	;wreg free
  1333   001484  EF7A  F009         	goto	l10199
  1334   001488                     l10277:
  1335   001488  5048               	movf	_SYSTEM_STATE_FLG^0,w,c
  1336   00148A  0101               	movlb	1	; () banked
  1337   00148C  6F37               	movwf	??_main& (0+255),b
  1338   00148E  6B38               	clrf	(??_main+1)& (0+255),b
  1339                           
  1340                           ; Switch on 2 bytes has been partitioned into a top level switch of size 1, and 1 sub-sw
      +                          itches
  1341                           ; Switch size 1, requested type "simple"
  1342                           ; Number of cases is 1, Range of values is 0 to 0
  1343                           ; switch strategies available:
  1344                           ; Name         Instructions Cycles
  1345                           ; simple_byte            4     3 (average)
  1346                           ;	Chosen strategy is simple_byte
  1347   001490  5138               	movf	(??_main+1)& (0+255),w,b
  1348   001492  0A00               	xorlw	0	; case 0
  1349   001494  B4D8               	btfsc	status,2,c
  1350   001496  EF4F  F00A         	goto	l10631
  1351   00149A  EF7A  F009         	goto	l10199
  1352   00149E                     l10631:
  1353                           
  1354                           ; BSR set to: 1
  1355                           ; Switch size 1, requested type "simple"
  1356                           ; Number of cases is 4, Range of values is 200 to 203
  1357                           ; switch strategies available:
  1358                           ; Name         Instructions Cycles
  1359                           ; simple_byte           13     7 (average)
  1360                           ;	Chosen strategy is simple_byte
  1361   00149E  5137               	movf	??_main& (0+255),w,b
  1362   0014A0  0AC8               	xorlw	200	; case 200
  1363   0014A2  B4D8               	btfsc	status,2,c
  1364   0014A4  EF35  F00A         	goto	l348
  1365   0014A8  0A01               	xorlw	1	; case 201
  1366   0014AA  B4D8               	btfsc	status,2,c
  1367   0014AC  EF35  F00A         	goto	l10273
  1368   0014B0  0A03               	xorlw	3	; case 202
  1369   0014B2  B4D8               	btfsc	status,2,c
  1370   0014B4  EF35  F00A         	goto	l10273
  1371   0014B8  0A01               	xorlw	1	; case 203
  1372   0014BA  B4D8               	btfsc	status,2,c
  1373   0014BC  EF35  F00A         	goto	l10273
  1374   0014C0  EF7A  F009         	goto	l10199
  1375   0014C4  EF2C  F000         	goto	start
  1376   0014C8                     __end_of_main:
  1377                           	callstack 0
  1378                           
  1379 ;; *************** function _VerifyButtons *****************
  1380 ;; Defined at:
  1381 ;;		line 47 in file "Buttons.c"
  1382 ;; Parameters:    Size  Location     Type
  1383 ;;		None
  1384 ;; Auto vars:     Size  Location     Type
  1385 ;;		None
  1386 ;; Return value:  Size  Location     Type
  1387 ;;                  1    wreg      void 
  1388 ;; Registers used:
  1389 ;;		wreg, status,2, status,0, cstack
  1390 ;; Tracked objects:
  1391 ;;		On entry : 0/0
  1392 ;;		On exit  : 0/0
  1393 ;;		Unchanged: 0/0
  1394 ;; Data sizes:     COMRAM   BANK0   BANK1   BANK2   BANK3   BANK4   BANK5
  1395 ;;      Params:         0       0       0       0       0       0       0
  1396 ;;      Locals:         0       0       0       0       0       0       0
  1397 ;;      Temps:          0       0       2       0       0       0       0
  1398 ;;      Totals:         0       0       2       0       0       0       0
  1399 ;;Total ram usage:        2 bytes
  1400 ;; Hardware stack levels used: 1
  1401 ;; Hardware stack levels required when called: 10
  1402 ;; This function calls:
  1403 ;;		_ActionButtons
  1404 ;; This function is called by:
  1405 ;;		_main
  1406 ;; This function uses a non-reentrant model
  1407 ;;
  1408                           
  1409                           	psect	text1
  1410   000D60                     __ptext1:
  1411                           	callstack 0
  1412   000D60                     _VerifyButtons:
  1413                           	callstack 20
  1414   000D60                     
  1415                           ;Buttons.c: 49:     switch( BTN_CLICK_EVENT ) {
  1416   000D60  EF48  F008         	goto	l10127
  1417   000D64                     l10025:
  1418                           
  1419                           ; BSR set to: 1
  1420   000D64  0EB1               	movlw	177
  1421   000D66  5C14               	subwf	_hour_btn_pressed_cnt^0,w,c
  1422   000D68  0E04               	movlw	4
  1423   000D6A  5815               	subwfb	(_hour_btn_pressed_cnt+1)^0,w,c
  1424   000D6C  A0D8               	btfss	status,0,c
  1425   000D6E  EFBB  F006         	goto	u7691
  1426   000D72  EFBD  F006         	goto	u7690
  1427   000D76                     u7691:
  1428   000D76  EFD1  F006         	goto	l10033
  1429   000D7A                     u7690:
  1430   000D7A                     
  1431                           ; BSR set to: 1
  1432   000D7A  502C               	movf	_btn_long_press_verify_flg^0,w,c
  1433   000D7C  A4D8               	btfss	status,2,c
  1434   000D7E  EFC3  F006         	goto	u7701
  1435   000D82  EFC5  F006         	goto	u7700
  1436   000D86                     u7701:
  1437   000D86  EFC7  F006         	goto	l1138
  1438   000D8A                     u7700:
  1439   000D8A                     
  1440                           ; BSR set to: 1
  1441   000D8A  0E10               	movlw	16
  1442   000D8C  6E2F               	movwf	_BTN_CLICK_STATE^0,c
  1443   000D8E                     l1138:
  1444                           
  1445                           ; BSR set to: 1
  1446   000D8E  0E01               	movlw	1
  1447   000D90  6E2C               	movwf	_btn_long_press_verify_flg^0,c
  1448   000D92  0E04               	movlw	4
  1449   000D94  6E15               	movwf	(_hour_btn_pressed_cnt+1)^0,c
  1450   000D96  0EB0               	movlw	176
  1451   000D98  6E14               	movwf	_hour_btn_pressed_cnt^0,c
  1452   000D9A                     l10031:
  1453                           
  1454                           ; BSR set to: 1
  1455   000D9A  EC27  F003         	call	_ActionButtons	;wreg free
  1456   000D9E  EFEA  F006         	goto	l10041
  1457   000DA2                     l10033:
  1458                           
  1459                           ; BSR set to: 1
  1460   000DA2  5015               	movf	(_hour_btn_pressed_cnt+1)^0,w,c
  1461   000DA4  E109               	bnz	u7710
  1462   000DA6  0E33               	movlw	51
  1463   000DA8  5C14               	subwf	_hour_btn_pressed_cnt^0,w,c
  1464   000DAA  A0D8               	btfss	status,0,c
  1465   000DAC  EFDA  F006         	goto	u7711
  1466   000DB0  EFDC  F006         	goto	u7710
  1467   000DB4                     u7711:
  1468   000DB4  EFEA  F006         	goto	l10041
  1469   000DB8                     u7710:
  1470   000DB8                     
  1471                           ; BSR set to: 1
  1472   000DB8  502D               	movf	_btn_press_verify_flg^0,w,c
  1473   000DBA  A4D8               	btfss	status,2,c
  1474   000DBC  EFE2  F006         	goto	u7721
  1475   000DC0  EFE4  F006         	goto	u7720
  1476   000DC4                     u7721:
  1477   000DC4  EFE6  F006         	goto	l1141
  1478   000DC8                     u7720:
  1479   000DC8                     
  1480                           ; BSR set to: 1
  1481   000DC8  0E0B               	movlw	11
  1482   000DCA  6E2F               	movwf	_BTN_CLICK_STATE^0,c
  1483   000DCC                     l1141:
  1484                           
  1485                           ; BSR set to: 1
  1486   000DCC  0E01               	movlw	1
  1487   000DCE  6E2D               	movwf	_btn_press_verify_flg^0,c
  1488   000DD0  EFCD  F006         	goto	l10031
  1489   000DD4                     l10041:
  1490                           
  1491                           ;Buttons.c: 53:                 if( hour_btn_released_cnt > 5 ) {
  1492   000DD4  0100               	movlb	0	; () banked
  1493   000DD6  51C1               	movf	(_hour_btn_released_cnt+1)& (0+255),w,b
  1494   000DD8  E109               	bnz	u7730
  1495   000DDA  0E06               	movlw	6
  1496   000DDC  5DC0               	subwf	_hour_btn_released_cnt& (0+255),w,b
  1497   000DDE  A0D8               	btfss	status,0,c
  1498   000DE0  EFF4  F006         	goto	u7731
  1499   000DE4  EFF6  F006         	goto	u7730
  1500   000DE8                     u7731:
  1501   000DE8  EF6A  F008         	goto	l1172
  1502   000DEC                     u7730:
  1503   000DEC                     
  1504                           ; BSR set to: 0
  1505                           ;Buttons.c: 54:                     hour_btn_released_cnt = 0; BTN_CLICK_EVENT = 0; btn_
      +                          long_press_verify_flg = 0; btn_press_verify_flg = 0; BTN_CLICK_STATE = 0;
  1506   000DEC  0E00               	movlw	0
  1507   000DEE  6FC1               	movwf	(_hour_btn_released_cnt+1)& (0+255),b
  1508   000DF0  0E00               	movlw	0
  1509   000DF2  6FC0               	movwf	_hour_btn_released_cnt& (0+255),b
  1510   000DF4  0E00               	movlw	0
  1511   000DF6  6E2E               	movwf	_BTN_CLICK_EVENT^0,c
  1512   000DF8  0E00               	movlw	0
  1513   000DFA  6E2C               	movwf	_btn_long_press_verify_flg^0,c
  1514   000DFC  0E00               	movlw	0
  1515   000DFE  6E2D               	movwf	_btn_press_verify_flg^0,c
  1516   000E00  0E00               	movlw	0
  1517   000E02  6E2F               	movwf	_BTN_CLICK_STATE^0,c
  1518   000E04  EF6A  F008         	goto	l1172
  1519   000E08                     l10045:
  1520                           
  1521                           ; BSR set to: 1
  1522   000E08  0EB1               	movlw	177
  1523   000E0A  5C12               	subwf	_up_btn_pressed_cnt^0,w,c
  1524   000E0C  0E04               	movlw	4
  1525   000E0E  5813               	subwfb	(_up_btn_pressed_cnt+1)^0,w,c
  1526   000E10  A0D8               	btfss	status,0,c
  1527   000E12  EF0D  F007         	goto	u7741
  1528   000E16  EF0F  F007         	goto	u7740
  1529   000E1A                     u7741:
  1530   000E1A  EF23  F007         	goto	l10053
  1531   000E1E                     u7740:
  1532   000E1E                     
  1533                           ; BSR set to: 1
  1534   000E1E  502C               	movf	_btn_long_press_verify_flg^0,w,c
  1535   000E20  A4D8               	btfss	status,2,c
  1536   000E22  EF15  F007         	goto	u7751
  1537   000E26  EF17  F007         	goto	u7750
  1538   000E2A                     u7751:
  1539   000E2A  EF19  F007         	goto	l1146
  1540   000E2E                     u7750:
  1541   000E2E                     
  1542                           ; BSR set to: 1
  1543   000E2E  0E11               	movlw	17
  1544   000E30  6E2F               	movwf	_BTN_CLICK_STATE^0,c
  1545   000E32                     l1146:
  1546                           
  1547                           ; BSR set to: 1
  1548   000E32  0E01               	movlw	1
  1549   000E34  6E2C               	movwf	_btn_long_press_verify_flg^0,c
  1550   000E36  0E04               	movlw	4
  1551   000E38  6E13               	movwf	(_up_btn_pressed_cnt+1)^0,c
  1552   000E3A  0EB0               	movlw	176
  1553   000E3C  6E12               	movwf	_up_btn_pressed_cnt^0,c
  1554   000E3E                     l10051:
  1555                           
  1556                           ; BSR set to: 1
  1557   000E3E  EC27  F003         	call	_ActionButtons	;wreg free
  1558   000E42  EF3C  F007         	goto	l10061
  1559   000E46                     l10053:
  1560                           
  1561                           ; BSR set to: 1
  1562   000E46  5013               	movf	(_up_btn_pressed_cnt+1)^0,w,c
  1563   000E48  E109               	bnz	u7760
  1564   000E4A  0E33               	movlw	51
  1565   000E4C  5C12               	subwf	_up_btn_pressed_cnt^0,w,c
  1566   000E4E  A0D8               	btfss	status,0,c
  1567   000E50  EF2C  F007         	goto	u7761
  1568   000E54  EF2E  F007         	goto	u7760
  1569   000E58                     u7761:
  1570   000E58  EF3C  F007         	goto	l10061
  1571   000E5C                     u7760:
  1572   000E5C                     
  1573                           ; BSR set to: 1
  1574   000E5C  502D               	movf	_btn_press_verify_flg^0,w,c
  1575   000E5E  A4D8               	btfss	status,2,c
  1576   000E60  EF34  F007         	goto	u7771
  1577   000E64  EF36  F007         	goto	u7770
  1578   000E68                     u7771:
  1579   000E68  EF38  F007         	goto	l1149
  1580   000E6C                     u7770:
  1581   000E6C                     
  1582                           ; BSR set to: 1
  1583   000E6C  0E0C               	movlw	12
  1584   000E6E  6E2F               	movwf	_BTN_CLICK_STATE^0,c
  1585   000E70                     l1149:
  1586                           
  1587                           ; BSR set to: 1
  1588   000E70  0E01               	movlw	1
  1589   000E72  6E2D               	movwf	_btn_press_verify_flg^0,c
  1590   000E74  EF1F  F007         	goto	l10051
  1591   000E78                     l10061:
  1592                           
  1593                           ;Buttons.c: 60:                 if( up_btn_released_cnt > 5 ) {
  1594   000E78  0100               	movlb	0	; () banked
  1595   000E7A  51BF               	movf	(_up_btn_released_cnt+1)& (0+255),w,b
  1596   000E7C  E109               	bnz	u7780
  1597   000E7E  0E06               	movlw	6
  1598   000E80  5DBE               	subwf	_up_btn_released_cnt& (0+255),w,b
  1599   000E82  A0D8               	btfss	status,0,c
  1600   000E84  EF46  F007         	goto	u7781
  1601   000E88  EF48  F007         	goto	u7780
  1602   000E8C                     u7781:
  1603   000E8C  EF6A  F008         	goto	l1172
  1604   000E90                     u7780:
  1605   000E90                     
  1606                           ; BSR set to: 0
  1607                           ;Buttons.c: 61:                     up_btn_released_cnt = 0; BTN_CLICK_EVENT = 0; btn_lo
      +                          ng_press_verify_flg = 0; btn_press_verify_flg = 0; BTN_CLICK_STATE = 0;
  1608   000E90  0E00               	movlw	0
  1609   000E92  6FBF               	movwf	(_up_btn_released_cnt+1)& (0+255),b
  1610   000E94  0E00               	movlw	0
  1611   000E96  6FBE               	movwf	_up_btn_released_cnt& (0+255),b
  1612   000E98  0E00               	movlw	0
  1613   000E9A  6E2E               	movwf	_BTN_CLICK_EVENT^0,c
  1614   000E9C  0E00               	movlw	0
  1615   000E9E  6E2C               	movwf	_btn_long_press_verify_flg^0,c
  1616   000EA0  0E00               	movlw	0
  1617   000EA2  6E2D               	movwf	_btn_press_verify_flg^0,c
  1618   000EA4  0E00               	movlw	0
  1619   000EA6  6E2F               	movwf	_BTN_CLICK_STATE^0,c
  1620   000EA8  EF6A  F008         	goto	l1172
  1621   000EAC                     l10065:
  1622                           
  1623                           ; BSR set to: 1
  1624   000EAC  0EB1               	movlw	177
  1625   000EAE  5C10               	subwf	_down_btn_pressed_cnt^0,w,c
  1626   000EB0  0E04               	movlw	4
  1627   000EB2  5811               	subwfb	(_down_btn_pressed_cnt+1)^0,w,c
  1628   000EB4  A0D8               	btfss	status,0,c
  1629   000EB6  EF5F  F007         	goto	u7791
  1630   000EBA  EF61  F007         	goto	u7790
  1631   000EBE                     u7791:
  1632   000EBE  EF75  F007         	goto	l10073
  1633   000EC2                     u7790:
  1634   000EC2                     
  1635                           ; BSR set to: 1
  1636   000EC2  502C               	movf	_btn_long_press_verify_flg^0,w,c
  1637   000EC4  A4D8               	btfss	status,2,c
  1638   000EC6  EF67  F007         	goto	u7801
  1639   000ECA  EF69  F007         	goto	u7800
  1640   000ECE                     u7801:
  1641   000ECE  EF6B  F007         	goto	l1153
  1642   000ED2                     u7800:
  1643   000ED2                     
  1644                           ; BSR set to: 1
  1645   000ED2  0E12               	movlw	18
  1646   000ED4  6E2F               	movwf	_BTN_CLICK_STATE^0,c
  1647   000ED6                     l1153:
  1648                           
  1649                           ; BSR set to: 1
  1650   000ED6  0E01               	movlw	1
  1651   000ED8  6E2C               	movwf	_btn_long_press_verify_flg^0,c
  1652   000EDA  0E04               	movlw	4
  1653   000EDC  6E11               	movwf	(_down_btn_pressed_cnt+1)^0,c
  1654   000EDE  0EB0               	movlw	176
  1655   000EE0  6E10               	movwf	_down_btn_pressed_cnt^0,c
  1656   000EE2                     l10071:
  1657                           
  1658                           ; BSR set to: 1
  1659   000EE2  EC27  F003         	call	_ActionButtons	;wreg free
  1660   000EE6  EF8E  F007         	goto	l10081
  1661   000EEA                     l10073:
  1662                           
  1663                           ; BSR set to: 1
  1664   000EEA  5011               	movf	(_down_btn_pressed_cnt+1)^0,w,c
  1665   000EEC  E109               	bnz	u7810
  1666   000EEE  0E33               	movlw	51
  1667   000EF0  5C10               	subwf	_down_btn_pressed_cnt^0,w,c
  1668   000EF2  A0D8               	btfss	status,0,c
  1669   000EF4  EF7E  F007         	goto	u7811
  1670   000EF8  EF80  F007         	goto	u7810
  1671   000EFC                     u7811:
  1672   000EFC  EF8E  F007         	goto	l10081
  1673   000F00                     u7810:
  1674   000F00                     
  1675                           ; BSR set to: 1
  1676   000F00  502D               	movf	_btn_press_verify_flg^0,w,c
  1677   000F02  A4D8               	btfss	status,2,c
  1678   000F04  EF86  F007         	goto	u7821
  1679   000F08  EF88  F007         	goto	u7820
  1680   000F0C                     u7821:
  1681   000F0C  EF8A  F007         	goto	l1156
  1682   000F10                     u7820:
  1683   000F10                     
  1684                           ; BSR set to: 1
  1685   000F10  0E0D               	movlw	13
  1686   000F12  6E2F               	movwf	_BTN_CLICK_STATE^0,c
  1687   000F14                     l1156:
  1688                           
  1689                           ; BSR set to: 1
  1690   000F14  0E01               	movlw	1
  1691   000F16  6E2D               	movwf	_btn_press_verify_flg^0,c
  1692   000F18  EF71  F007         	goto	l10071
  1693   000F1C                     l10081:
  1694                           
  1695                           ;Buttons.c: 67:                 if( down_btn_released_cnt > 5 ) {
  1696   000F1C  0100               	movlb	0	; () banked
  1697   000F1E  51BD               	movf	(_down_btn_released_cnt+1)& (0+255),w,b
  1698   000F20  E109               	bnz	u7830
  1699   000F22  0E06               	movlw	6
  1700   000F24  5DBC               	subwf	_down_btn_released_cnt& (0+255),w,b
  1701   000F26  A0D8               	btfss	status,0,c
  1702   000F28  EF98  F007         	goto	u7831
  1703   000F2C  EF9A  F007         	goto	u7830
  1704   000F30                     u7831:
  1705   000F30  EF6A  F008         	goto	l1172
  1706   000F34                     u7830:
  1707   000F34                     
  1708                           ; BSR set to: 0
  1709                           ;Buttons.c: 68:                     down_btn_released_cnt = 0; BTN_CLICK_EVENT = 0; btn_
      +                          long_press_verify_flg = 0; btn_press_verify_flg = 0; BTN_CLICK_STATE = 0;
  1710   000F34  0E00               	movlw	0
  1711   000F36  6FBD               	movwf	(_down_btn_released_cnt+1)& (0+255),b
  1712   000F38  0E00               	movlw	0
  1713   000F3A  6FBC               	movwf	_down_btn_released_cnt& (0+255),b
  1714   000F3C  0E00               	movlw	0
  1715   000F3E  6E2E               	movwf	_BTN_CLICK_EVENT^0,c
  1716   000F40  0E00               	movlw	0
  1717   000F42  6E2C               	movwf	_btn_long_press_verify_flg^0,c
  1718   000F44  0E00               	movlw	0
  1719   000F46  6E2D               	movwf	_btn_press_verify_flg^0,c
  1720   000F48  0E00               	movlw	0
  1721   000F4A  6E2F               	movwf	_BTN_CLICK_STATE^0,c
  1722   000F4C  EF6A  F008         	goto	l1172
  1723   000F50                     l10085:
  1724                           
  1725                           ; BSR set to: 1
  1726   000F50  0EB1               	movlw	177
  1727   000F52  5C0E               	subwf	_sel_btn_pressed_cnt^0,w,c
  1728   000F54  0E04               	movlw	4
  1729   000F56  580F               	subwfb	(_sel_btn_pressed_cnt+1)^0,w,c
  1730   000F58  A0D8               	btfss	status,0,c
  1731   000F5A  EFB1  F007         	goto	u7841
  1732   000F5E  EFB3  F007         	goto	u7840
  1733   000F62                     u7841:
  1734   000F62  EFC7  F007         	goto	l10093
  1735   000F66                     u7840:
  1736   000F66                     
  1737                           ; BSR set to: 1
  1738   000F66  502C               	movf	_btn_long_press_verify_flg^0,w,c
  1739   000F68  A4D8               	btfss	status,2,c
  1740   000F6A  EFB9  F007         	goto	u7851
  1741   000F6E  EFBB  F007         	goto	u7850
  1742   000F72                     u7851:
  1743   000F72  EFBD  F007         	goto	l1160
  1744   000F76                     u7850:
  1745   000F76                     
  1746                           ; BSR set to: 1
  1747   000F76  0E13               	movlw	19
  1748   000F78  6E2F               	movwf	_BTN_CLICK_STATE^0,c
  1749   000F7A                     l1160:
  1750                           
  1751                           ; BSR set to: 1
  1752   000F7A  0E01               	movlw	1
  1753   000F7C  6E2C               	movwf	_btn_long_press_verify_flg^0,c
  1754   000F7E  0E04               	movlw	4
  1755   000F80  6E0F               	movwf	(_sel_btn_pressed_cnt+1)^0,c
  1756   000F82  0EB0               	movlw	176
  1757   000F84  6E0E               	movwf	_sel_btn_pressed_cnt^0,c
  1758   000F86                     l10091:
  1759                           
  1760                           ; BSR set to: 1
  1761   000F86  EC27  F003         	call	_ActionButtons	;wreg free
  1762   000F8A  EFE0  F007         	goto	l10101
  1763   000F8E                     l10093:
  1764                           
  1765                           ; BSR set to: 1
  1766   000F8E  500F               	movf	(_sel_btn_pressed_cnt+1)^0,w,c
  1767   000F90  E109               	bnz	u7860
  1768   000F92  0E33               	movlw	51
  1769   000F94  5C0E               	subwf	_sel_btn_pressed_cnt^0,w,c
  1770   000F96  A0D8               	btfss	status,0,c
  1771   000F98  EFD0  F007         	goto	u7861
  1772   000F9C  EFD2  F007         	goto	u7860
  1773   000FA0                     u7861:
  1774   000FA0  EFE0  F007         	goto	l10101
  1775   000FA4                     u7860:
  1776   000FA4                     
  1777                           ; BSR set to: 1
  1778   000FA4  502D               	movf	_btn_press_verify_flg^0,w,c
  1779   000FA6  A4D8               	btfss	status,2,c
  1780   000FA8  EFD8  F007         	goto	u7871
  1781   000FAC  EFDA  F007         	goto	u7870
  1782   000FB0                     u7871:
  1783   000FB0  EFDC  F007         	goto	l1163
  1784   000FB4                     u7870:
  1785   000FB4                     
  1786                           ; BSR set to: 1
  1787   000FB4  0E0E               	movlw	14
  1788   000FB6  6E2F               	movwf	_BTN_CLICK_STATE^0,c
  1789   000FB8                     l1163:
  1790                           
  1791                           ; BSR set to: 1
  1792   000FB8  0E01               	movlw	1
  1793   000FBA  6E2D               	movwf	_btn_press_verify_flg^0,c
  1794   000FBC  EFC3  F007         	goto	l10091
  1795   000FC0                     l10101:
  1796                           
  1797                           ;Buttons.c: 74:                 if( sel_btn_released_cnt > 5 ) {
  1798   000FC0  0100               	movlb	0	; () banked
  1799   000FC2  51BB               	movf	(_sel_btn_released_cnt+1)& (0+255),w,b
  1800   000FC4  E109               	bnz	u7880
  1801   000FC6  0E06               	movlw	6
  1802   000FC8  5DBA               	subwf	_sel_btn_released_cnt& (0+255),w,b
  1803   000FCA  A0D8               	btfss	status,0,c
  1804   000FCC  EFEA  F007         	goto	u7881
  1805   000FD0  EFEC  F007         	goto	u7880
  1806   000FD4                     u7881:
  1807   000FD4  EF6A  F008         	goto	l1172
  1808   000FD8                     u7880:
  1809   000FD8                     
  1810                           ; BSR set to: 0
  1811                           ;Buttons.c: 75:                     sel_btn_released_cnt = 0; BTN_CLICK_EVENT = 0; btn_l
      +                          ong_press_verify_flg = 0; btn_press_verify_flg = 0;
  1812   000FD8  0E00               	movlw	0
  1813   000FDA  6FBB               	movwf	(_sel_btn_released_cnt+1)& (0+255),b
  1814   000FDC  0E00               	movlw	0
  1815   000FDE  6FBA               	movwf	_sel_btn_released_cnt& (0+255),b
  1816   000FE0  0E00               	movlw	0
  1817   000FE2  6E2E               	movwf	_BTN_CLICK_EVENT^0,c
  1818   000FE4  0E00               	movlw	0
  1819   000FE6  6E2C               	movwf	_btn_long_press_verify_flg^0,c
  1820   000FE8  0E00               	movlw	0
  1821   000FEA  6E2D               	movwf	_btn_press_verify_flg^0,c
  1822   000FEC  EF6A  F008         	goto	l1172
  1823   000FF0                     l10105:
  1824                           
  1825                           ; BSR set to: 1
  1826   000FF0  0EB1               	movlw	177
  1827   000FF2  5C0C               	subwf	_reset_btn_pressed_cnt^0,w,c
  1828   000FF4  0E04               	movlw	4
  1829   000FF6  580D               	subwfb	(_reset_btn_pressed_cnt+1)^0,w,c
  1830   000FF8  A0D8               	btfss	status,0,c
  1831   000FFA  EF01  F008         	goto	u7891
  1832   000FFE  EF03  F008         	goto	u7890
  1833   001002                     u7891:
  1834   001002  EF17  F008         	goto	l10113
  1835   001006                     u7890:
  1836   001006                     
  1837                           ; BSR set to: 1
  1838   001006  502C               	movf	_btn_long_press_verify_flg^0,w,c
  1839   001008  A4D8               	btfss	status,2,c
  1840   00100A  EF09  F008         	goto	u7901
  1841   00100E  EF0B  F008         	goto	u7900
  1842   001012                     u7901:
  1843   001012  EF0D  F008         	goto	l1167
  1844   001016                     u7900:
  1845   001016                     
  1846                           ; BSR set to: 1
  1847   001016  0E14               	movlw	20
  1848   001018  6E2F               	movwf	_BTN_CLICK_STATE^0,c
  1849   00101A                     l1167:
  1850                           
  1851                           ; BSR set to: 1
  1852   00101A  0E01               	movlw	1
  1853   00101C  6E2C               	movwf	_btn_long_press_verify_flg^0,c
  1854   00101E  0E04               	movlw	4
  1855   001020  6E0D               	movwf	(_reset_btn_pressed_cnt+1)^0,c
  1856   001022  0EB0               	movlw	176
  1857   001024  6E0C               	movwf	_reset_btn_pressed_cnt^0,c
  1858   001026                     l10111:
  1859                           
  1860                           ; BSR set to: 1
  1861   001026  EC27  F003         	call	_ActionButtons	;wreg free
  1862   00102A  EF30  F008         	goto	l10121
  1863   00102E                     l10113:
  1864                           
  1865                           ; BSR set to: 1
  1866   00102E  500D               	movf	(_reset_btn_pressed_cnt+1)^0,w,c
  1867   001030  E109               	bnz	u7910
  1868   001032  0E33               	movlw	51
  1869   001034  5C0C               	subwf	_reset_btn_pressed_cnt^0,w,c
  1870   001036  A0D8               	btfss	status,0,c
  1871   001038  EF20  F008         	goto	u7911
  1872   00103C  EF22  F008         	goto	u7910
  1873   001040                     u7911:
  1874   001040  EF30  F008         	goto	l10121
  1875   001044                     u7910:
  1876   001044                     
  1877                           ; BSR set to: 1
  1878   001044  502D               	movf	_btn_press_verify_flg^0,w,c
  1879   001046  A4D8               	btfss	status,2,c
  1880   001048  EF28  F008         	goto	u7921
  1881   00104C  EF2A  F008         	goto	u7920
  1882   001050                     u7921:
  1883   001050  EF2C  F008         	goto	l1170
  1884   001054                     u7920:
  1885   001054                     
  1886                           ; BSR set to: 1
  1887   001054  0E0F               	movlw	15
  1888   001056  6E2F               	movwf	_BTN_CLICK_STATE^0,c
  1889   001058                     l1170:
  1890                           
  1891                           ; BSR set to: 1
  1892   001058  0E01               	movlw	1
  1893   00105A  6E2D               	movwf	_btn_press_verify_flg^0,c
  1894   00105C  EF13  F008         	goto	l10111
  1895   001060                     l10121:
  1896                           
  1897                           ;Buttons.c: 81:                 if( reset_btn_released_cnt > 5 ) {
  1898   001060  0100               	movlb	0	; () banked
  1899   001062  51B9               	movf	(_reset_btn_released_cnt+1)& (0+255),w,b
  1900   001064  E109               	bnz	u7930
  1901   001066  0E06               	movlw	6
  1902   001068  5DB8               	subwf	_reset_btn_released_cnt& (0+255),w,b
  1903   00106A  A0D8               	btfss	status,0,c
  1904   00106C  EF3A  F008         	goto	u7931
  1905   001070  EF3C  F008         	goto	u7930
  1906   001074                     u7931:
  1907   001074  EF6A  F008         	goto	l1172
  1908   001078                     u7930:
  1909   001078                     
  1910                           ; BSR set to: 0
  1911                           ;Buttons.c: 82:                     reset_btn_released_cnt = 0; BTN_CLICK_EVENT = 0; btn
      +                          _long_press_verify_flg = 0; btn_press_verify_flg = 0;
  1912   001078  0E00               	movlw	0
  1913   00107A  6FB9               	movwf	(_reset_btn_released_cnt+1)& (0+255),b
  1914   00107C  0E00               	movlw	0
  1915   00107E  6FB8               	movwf	_reset_btn_released_cnt& (0+255),b
  1916   001080  0E00               	movlw	0
  1917   001082  6E2E               	movwf	_BTN_CLICK_EVENT^0,c
  1918   001084  0E00               	movlw	0
  1919   001086  6E2C               	movwf	_btn_long_press_verify_flg^0,c
  1920   001088  0E00               	movlw	0
  1921   00108A  6E2D               	movwf	_btn_press_verify_flg^0,c
  1922   00108C  EF6A  F008         	goto	l1172
  1923   001090                     l10127:
  1924   001090  502E               	movf	_BTN_CLICK_EVENT^0,w,c
  1925   001092  0101               	movlb	1	; () banked
  1926   001094  6F28               	movwf	??_VerifyButtons& (0+255),b
  1927   001096  6B29               	clrf	(??_VerifyButtons+1)& (0+255),b
  1928                           
  1929                           ; Switch on 2 bytes has been partitioned into a top level switch of size 1, and 1 sub-sw
      +                          itches
  1930                           ; Switch size 1, requested type "simple"
  1931                           ; Number of cases is 1, Range of values is 0 to 0
  1932                           ; switch strategies available:
  1933                           ; Name         Instructions Cycles
  1934                           ; simple_byte            4     3 (average)
  1935                           ;	Chosen strategy is simple_byte
  1936   001098  5129               	movf	(??_VerifyButtons+1)& (0+255),w,b
  1937   00109A  0A00               	xorlw	0	; case 0
  1938   00109C  B4D8               	btfsc	status,2,c
  1939   00109E  EF53  F008         	goto	l10633
  1940   0010A2  EF6A  F008         	goto	l1172
  1941   0010A6                     l10633:
  1942                           
  1943                           ; BSR set to: 1
  1944                           ; Switch size 1, requested type "simple"
  1945                           ; Number of cases is 5, Range of values is 1 to 5
  1946                           ; switch strategies available:
  1947                           ; Name         Instructions Cycles
  1948                           ; simple_byte           16     9 (average)
  1949                           ;	Chosen strategy is simple_byte
  1950   0010A6  5128               	movf	??_VerifyButtons& (0+255),w,b
  1951   0010A8  0A01               	xorlw	1	; case 1
  1952   0010AA  B4D8               	btfsc	status,2,c
  1953   0010AC  EFB2  F006         	goto	l10025
  1954   0010B0  0A03               	xorlw	3	; case 2
  1955   0010B2  B4D8               	btfsc	status,2,c
  1956   0010B4  EF04  F007         	goto	l10045
  1957   0010B8  0A01               	xorlw	1	; case 3
  1958   0010BA  B4D8               	btfsc	status,2,c
  1959   0010BC  EF56  F007         	goto	l10065
  1960   0010C0  0A07               	xorlw	7	; case 4
  1961   0010C2  B4D8               	btfsc	status,2,c
  1962   0010C4  EFA8  F007         	goto	l10085
  1963   0010C8  0A01               	xorlw	1	; case 5
  1964   0010CA  B4D8               	btfsc	status,2,c
  1965   0010CC  EFF8  F007         	goto	l10105
  1966   0010D0  EF6A  F008         	goto	l1172
  1967   0010D4                     l1172:
  1968   0010D4  0012               	return		;funcret
  1969   0010D6                     __end_of_VerifyButtons:
  1970                           	callstack 0
  1971                           
  1972 ;; *************** function _ActionButtons *****************
  1973 ;; Defined at:
  1974 ;;		line 88 in file "Buttons.c"
  1975 ;; Parameters:    Size  Location     Type
  1976 ;;		None
  1977 ;; Auto vars:     Size  Location     Type
  1978 ;;  temp            1    0[BANK0 ] char 
  1979 ;; Return value:  Size  Location     Type
  1980 ;;                  1    wreg      void 
  1981 ;; Registers used:
  1982 ;;		wreg, status,2, status,0, cstack
  1983 ;; Tracked objects:
  1984 ;;		On entry : 0/0
  1985 ;;		On exit  : 0/0
  1986 ;;		Unchanged: 0/0
  1987 ;; Data sizes:     COMRAM   BANK0   BANK1   BANK2   BANK3   BANK4   BANK5
  1988 ;;      Params:         0       0       0       0       0       0       0
  1989 ;;      Locals:         0       1       0       0       0       0       0
  1990 ;;      Temps:          2       0       0       0       0       0       0
  1991 ;;      Totals:         2       1       0       0       0       0       0
  1992 ;;Total ram usage:        3 bytes
  1993 ;; Hardware stack levels used: 1
  1994 ;; Hardware stack levels required when called: 9
  1995 ;; This function calls:
  1996 ;;		_DecValProcess
  1997 ;;		_Ds1307HourSet
  1998 ;;		_Ds1307MinuteSet
  1999 ;;		_Ds1307SecondSet
  2000 ;;		_IncValProcess
  2001 ;;		_StartCounter
  2002 ;;		_StopCounter
  2003 ;;		_UpDownTransfer
  2004 ;; This function is called by:
  2005 ;;		_VerifyButtons
  2006 ;; This function uses a non-reentrant model
  2007 ;;
  2008                           
  2009                           	psect	text2
  2010   00064E                     __ptext2:
  2011                           	callstack 0
  2012   00064E                     _ActionButtons:
  2013                           	callstack 20
  2014   00064E                     
  2015                           ;Buttons.c: 90:     if( counter_down_comp_flg ) {
  2016   00064E  5034               	movf	_counter_down_comp_flg^0,w,c
  2017   000650  B4D8               	btfsc	status,2,c
  2018   000652  EF2D  F003         	goto	u7181
  2019   000656  EF2F  F003         	goto	u7180
  2020   00065A                     u7181:
  2021   00065A  EF8A  F006         	goto	l9887
  2022   00065E                     u7180:
  2023   00065E                     
  2024                           ;Buttons.c: 91:         blink_enable_flg = 0; counter_down_comp_flg = 0; SYSTEM_STATE_FL
      +                          G = 203; BTN_CLICK_STATE = 0;
  2025   00065E  0E00               	movlw	0
  2026   000660  6E32               	movwf	_blink_enable_flg^0,c
  2027   000662  0E00               	movlw	0
  2028   000664  6E34               	movwf	_counter_down_comp_flg^0,c
  2029   000666  0ECB               	movlw	203
  2030   000668  6E48               	movwf	_SYSTEM_STATE_FLG^0,c
  2031   00066A  0E00               	movlw	0
  2032   00066C  6E2F               	movwf	_BTN_CLICK_STATE^0,c
  2033   00066E  EF8A  F006         	goto	l9887
  2034   000672                     l9539:
  2035                           
  2036                           ;Buttons.c: 104:                     if( rtc_clock_disp_type == 0 ){
  2037   000672  504C               	movf	_rtc_clock_disp_type^0,w,c
  2038   000674  A4D8               	btfss	status,2,c
  2039   000676  EF3F  F003         	goto	u7191
  2040   00067A  EF41  F003         	goto	u7190
  2041   00067E                     u7191:
  2042   00067E  EF57  F003         	goto	l9547
  2043   000682                     u7190:
  2044   000682                     
  2045                           ;Buttons.c: 105:                         if( rtc_hour_ampm_flg == 0 && real_rtc_data[ 2 
      +                          ] == 0 ) real_rtc_data[ 2 ] = 0x12;
  2046   000682  504B               	movf	_rtc_hour_ampm_flg^0,w,c
  2047   000684  A4D8               	btfss	status,2,c
  2048   000686  EF47  F003         	goto	u7201
  2049   00068A  EF49  F003         	goto	u7200
  2050   00068E                     u7201:
  2051   00068E  EF53  F003         	goto	l1181
  2052   000692                     u7200:
  2053   000692  5003               	movf	(_real_rtc_data+2)^0,w,c
  2054   000694  A4D8               	btfss	status,2,c
  2055   000696  EF4F  F003         	goto	u7211
  2056   00069A  EF51  F003         	goto	u7210
  2057   00069E                     u7211:
  2058   00069E  EF53  F003         	goto	l1181
  2059   0006A2                     u7210:
  2060   0006A2  0E12               	movlw	18
  2061   0006A4  6E03               	movwf	(_real_rtc_data+2)^0,c
  2062   0006A6                     l1181:
  2063                           
  2064                           ;Buttons.c: 106:                         rtc_clock_disp_type = 1;
  2065   0006A6  0E01               	movlw	1
  2066   0006A8  6E4C               	movwf	_rtc_clock_disp_type^0,c
  2067                           
  2068                           ;Buttons.c: 107:                     }
  2069   0006AA  EF6C  F003         	goto	l1182
  2070   0006AE                     l9547:
  2071                           
  2072                           ;Buttons.c: 109:                         if( rtc_hour_ampm_flg == 0 && real_rtc_data[ 2 
      +                          ] == 0x12 ) real_rtc_data[ 2 ] = 0x00;
  2073   0006AE  504B               	movf	_rtc_hour_ampm_flg^0,w,c
  2074   0006B0  A4D8               	btfss	status,2,c
  2075   0006B2  EF5D  F003         	goto	u7221
  2076   0006B6  EF5F  F003         	goto	u7220
  2077   0006BA                     u7221:
  2078   0006BA  EF6A  F003         	goto	l1183
  2079   0006BE                     u7220:
  2080   0006BE  0E12               	movlw	18
  2081   0006C0  1803               	xorwf	(_real_rtc_data+2)^0,w,c
  2082   0006C2  A4D8               	btfss	status,2,c
  2083   0006C4  EF66  F003         	goto	u7231
  2084   0006C8  EF68  F003         	goto	u7230
  2085   0006CC                     u7231:
  2086   0006CC  EF6A  F003         	goto	l1183
  2087   0006D0                     u7230:
  2088   0006D0  0E00               	movlw	0
  2089   0006D2  6E03               	movwf	(_real_rtc_data+2)^0,c
  2090   0006D4                     l1183:
  2091                           
  2092                           ;Buttons.c: 110:                         rtc_clock_disp_type = 0;
  2093   0006D4  0E00               	movlw	0
  2094   0006D6  6E4C               	movwf	_rtc_clock_disp_type^0,c
  2095   0006D8                     l1182:
  2096                           
  2097                           ;Buttons.c: 112:                     BTN_CLICK_STATE = 0; Ds1307HourSet(real_rtc_data[ 2
      +                           ]);
  2098   0006D8  0E00               	movlw	0
  2099   0006DA  6E2F               	movwf	_BTN_CLICK_STATE^0,c
  2100   0006DC  5003               	movf	(_real_rtc_data+2)^0,w,c
  2101   0006DE  EC10  F010         	call	_Ds1307HourSet
  2102   0006E2  EFAF  F006         	goto	l1184
  2103   0006E6                     l1185:
  2104                           
  2105                           ;Buttons.c: 115:                     temp = real_rtc_data[ 2 ]; temp ++;
  2106   0006E6  C003  F0FE         	movff	_real_rtc_data+2,ActionButtons@temp
  2107   0006EA  0100               	movlb	0	; () banked
  2108   0006EC  2BFE               	incf	ActionButtons@temp& (0+255),f,b
  2109   0006EE                     
  2110                           ; BSR set to: 0
  2111                           ;Buttons.c: 116:                     if( temp % 16 >= 10 ) temp += 6;
  2112   0006EE  C0FE  F063         	movff	ActionButtons@temp,??_ActionButtons
  2113   0006F2  6A64               	clrf	(??_ActionButtons+1)^0,c
  2114   0006F4  BE63               	btfsc	??_ActionButtons^0,7,c
  2115   0006F6  0664               	decf	(??_ActionButtons+1)^0,f,c
  2116   0006F8  0E0F               	movlw	15
  2117   0006FA  1663               	andwf	??_ActionButtons^0,f,c
  2118   0006FC  0E00               	movlw	0
  2119   0006FE  1664               	andwf	(??_ActionButtons+1)^0,f,c
  2120   000700  BE64               	btfsc	(??_ActionButtons+1)^0,7,c
  2121   000702  EF8C  F003         	goto	u7241
  2122   000706  5064               	movf	(??_ActionButtons+1)^0,w,c
  2123   000708  E109               	bnz	u7240
  2124   00070A  0E0A               	movlw	10
  2125   00070C  5C63               	subwf	??_ActionButtons^0,w,c
  2126   00070E  A0D8               	btfss	status,0,c
  2127   000710  EF8C  F003         	goto	u7241
  2128   000714  EF8E  F003         	goto	u7240
  2129   000718                     u7241:
  2130   000718  EF90  F003         	goto	l9563
  2131   00071C                     u7240:
  2132   00071C                     
  2133                           ; BSR set to: 0
  2134   00071C  0E06               	movlw	6
  2135   00071E  27FE               	addwf	ActionButtons@temp& (0+255),f,b
  2136   000720                     l9563:
  2137                           
  2138                           ; BSR set to: 0
  2139                           ;Buttons.c: 117:                     if( rtc_clock_disp_type == 0 ){
  2140   000720  504C               	movf	_rtc_clock_disp_type^0,w,c
  2141   000722  A4D8               	btfss	status,2,c
  2142   000724  EF96  F003         	goto	u7251
  2143   000728  EF98  F003         	goto	u7250
  2144   00072C                     u7251:
  2145   00072C  EFB4  F003         	goto	l9573
  2146   000730                     u7250:
  2147   000730                     
  2148                           ; BSR set to: 0
  2149                           ;Buttons.c: 118:                         if( temp > 0x11 ) { rtc_hour_ampm_flg = 1; }
  2150   000730  51FE               	movf	ActionButtons@temp& (0+255),w,b
  2151   000732  0A80               	xorlw	128
  2152   000734  0F6E               	addlw	-146
  2153   000736  A0D8               	btfss	status,0,c
  2154   000738  EFA0  F003         	goto	u7261
  2155   00073C  EFA2  F003         	goto	u7260
  2156   000740                     u7261:
  2157   000740  EFA4  F003         	goto	l9569
  2158   000744                     u7260:
  2159   000744                     
  2160                           ; BSR set to: 0
  2161   000744  0E01               	movlw	1
  2162   000746  6E4B               	movwf	_rtc_hour_ampm_flg^0,c
  2163   000748                     l9569:
  2164                           
  2165                           ; BSR set to: 0
  2166                           ;Buttons.c: 119:                         if( temp > 0x23 ) { temp = 0; rtc_hour_ampm_flg
      +                           = 0; }
  2167   000748  51FE               	movf	ActionButtons@temp& (0+255),w,b
  2168   00074A  0A80               	xorlw	128
  2169   00074C  0F5C               	addlw	-164
  2170   00074E  A0D8               	btfss	status,0,c
  2171   000750  EFAC  F003         	goto	u7271
  2172   000754  EFAE  F003         	goto	u7270
  2173   000758                     u7271:
  2174   000758  EFE0  F003         	goto	l9587
  2175   00075C                     u7270:
  2176   00075C                     
  2177                           ; BSR set to: 0
  2178   00075C  0E00               	movlw	0
  2179   00075E  6FFE               	movwf	ActionButtons@temp& (0+255),b
  2180   000760  0E00               	movlw	0
  2181   000762  6E4B               	movwf	_rtc_hour_ampm_flg^0,c
  2182   000764  EFE0  F003         	goto	l9587
  2183   000768                     l9573:
  2184                           
  2185                           ; BSR set to: 0
  2186   000768  044C               	decf	_rtc_clock_disp_type^0,w,c
  2187   00076A  A4D8               	btfss	status,2,c
  2188   00076C  EFBA  F003         	goto	u7281
  2189   000770  EFBC  F003         	goto	u7280
  2190   000774                     u7281:
  2191   000774  EFE0  F003         	goto	l9587
  2192   000778                     u7280:
  2193   000778                     
  2194                           ; BSR set to: 0
  2195                           ;Buttons.c: 122:                         if( temp > 0x12 ) temp = 1;
  2196   000778  51FE               	movf	ActionButtons@temp& (0+255),w,b
  2197   00077A  0A80               	xorlw	128
  2198   00077C  0F6D               	addlw	-147
  2199   00077E  A0D8               	btfss	status,0,c
  2200   000780  EFC4  F003         	goto	u7291
  2201   000784  EFC6  F003         	goto	u7290
  2202   000788                     u7291:
  2203   000788  EFC8  F003         	goto	l9579
  2204   00078C                     u7290:
  2205   00078C                     
  2206                           ; BSR set to: 0
  2207   00078C  0E01               	movlw	1
  2208   00078E  6FFE               	movwf	ActionButtons@temp& (0+255),b
  2209   000790                     l9579:
  2210                           
  2211                           ; BSR set to: 0
  2212                           ;Buttons.c: 123:                         if( temp > 0x11 ) {
  2213   000790  51FE               	movf	ActionButtons@temp& (0+255),w,b
  2214   000792  0A80               	xorlw	128
  2215   000794  0F6E               	addlw	-146
  2216   000796  A0D8               	btfss	status,0,c
  2217   000798  EFD0  F003         	goto	u7301
  2218   00079C  EFD2  F003         	goto	u7300
  2219   0007A0                     u7301:
  2220   0007A0  EFE0  F003         	goto	l9587
  2221   0007A4                     u7300:
  2222   0007A4                     
  2223                           ; BSR set to: 0
  2224                           ;Buttons.c: 124:                             if( rtc_hour_ampm_flg == 1 ) rtc_hour_ampm_
      +                          flg = 0;
  2225   0007A4  044B               	decf	_rtc_hour_ampm_flg^0,w,c
  2226   0007A6  A4D8               	btfss	status,2,c
  2227   0007A8  EFD8  F003         	goto	u7311
  2228   0007AC  EFDA  F003         	goto	u7310
  2229   0007B0                     u7311:
  2230   0007B0  EFDE  F003         	goto	l9585
  2231   0007B4                     u7310:
  2232   0007B4                     
  2233                           ; BSR set to: 0
  2234   0007B4  0E00               	movlw	0
  2235   0007B6  6E4B               	movwf	_rtc_hour_ampm_flg^0,c
  2236   0007B8  EFE0  F003         	goto	l9587
  2237   0007BC                     l9585:
  2238                           
  2239                           ; BSR set to: 0
  2240   0007BC  0E01               	movlw	1
  2241   0007BE  6E4B               	movwf	_rtc_hour_ampm_flg^0,c
  2242   0007C0                     l9587:
  2243                           
  2244                           ; BSR set to: 0
  2245                           ;Buttons.c: 128:                     real_rtc_data[ 2 ] = temp;
  2246   0007C0  C0FE  F003         	movff	ActionButtons@temp,_real_rtc_data+2
  2247   0007C4                     
  2248                           ; BSR set to: 0
  2249                           ;Buttons.c: 129:                     Ds1307HourSet(real_rtc_data[ 2 ]);
  2250   0007C4  5003               	movf	(_real_rtc_data+2)^0,w,c
  2251   0007C6  EC10  F010         	call	_Ds1307HourSet
  2252   0007CA                     l9591:
  2253                           
  2254                           ;Buttons.c: 130:                     BTN_CLICK_STATE = 0;
  2255   0007CA  0E00               	movlw	0
  2256   0007CC  6E2F               	movwf	_BTN_CLICK_STATE^0,c
  2257                           
  2258                           ;Buttons.c: 131:                     break;
  2259   0007CE  EFAF  F006         	goto	l1184
  2260   0007D2                     l9593:
  2261                           
  2262                           ;Buttons.c: 133:                     continue_pressed_cnt ++;
  2263   0007D2  4A0A               	infsnz	_continue_pressed_cnt^0,f,c
  2264   0007D4  2A0B               	incf	(_continue_pressed_cnt+1)^0,f,c
  2265   0007D6                     
  2266                           ;Buttons.c: 134:                     if( continue_pressed_cnt > CONTINUE_PRESSED_TIME ) 
      +                          {
  2267   0007D6  500A               	movf	_continue_pressed_cnt^0,w,c
  2268   0007D8  5C08               	subwf	_CONTINUE_PRESSED_TIME^0,w,c
  2269   0007DA  500B               	movf	(_continue_pressed_cnt+1)^0,w,c
  2270   0007DC  5809               	subwfb	(_CONTINUE_PRESSED_TIME+1)^0,w,c
  2271   0007DE  B0D8               	btfsc	status,0,c
  2272   0007E0  EFF4  F003         	goto	u7321
  2273   0007E4  EFF6  F003         	goto	u7320
  2274   0007E8                     u7321:
  2275   0007E8  EFAF  F006         	goto	l1184
  2276   0007EC                     u7320:
  2277   0007EC                     
  2278                           ;Buttons.c: 135:                         temp = real_rtc_data[ 1 ]; temp ++;
  2279   0007EC  C002  F0FE         	movff	_real_rtc_data+1,ActionButtons@temp
  2280   0007F0  0100               	movlb	0	; () banked
  2281   0007F2  2BFE               	incf	ActionButtons@temp& (0+255),f,b
  2282   0007F4                     
  2283                           ; BSR set to: 0
  2284                           ;Buttons.c: 136:                         if( temp % 16 >= 10 ) temp += 6;
  2285   0007F4  C0FE  F063         	movff	ActionButtons@temp,??_ActionButtons
  2286   0007F8  6A64               	clrf	(??_ActionButtons+1)^0,c
  2287   0007FA  BE63               	btfsc	??_ActionButtons^0,7,c
  2288   0007FC  0664               	decf	(??_ActionButtons+1)^0,f,c
  2289   0007FE  0E0F               	movlw	15
  2290   000800  1663               	andwf	??_ActionButtons^0,f,c
  2291   000802  0E00               	movlw	0
  2292   000804  1664               	andwf	(??_ActionButtons+1)^0,f,c
  2293   000806  BE64               	btfsc	(??_ActionButtons+1)^0,7,c
  2294   000808  EF0F  F004         	goto	u7331
  2295   00080C  5064               	movf	(??_ActionButtons+1)^0,w,c
  2296   00080E  E109               	bnz	u7330
  2297   000810  0E0A               	movlw	10
  2298   000812  5C63               	subwf	??_ActionButtons^0,w,c
  2299   000814  A0D8               	btfss	status,0,c
  2300   000816  EF0F  F004         	goto	u7331
  2301   00081A  EF11  F004         	goto	u7330
  2302   00081E                     u7331:
  2303   00081E  EF13  F004         	goto	l1199
  2304   000822                     u7330:
  2305   000822                     
  2306                           ; BSR set to: 0
  2307   000822  0E06               	movlw	6
  2308   000824  27FE               	addwf	ActionButtons@temp& (0+255),f,b
  2309   000826                     l1199:
  2310                           
  2311                           ; BSR set to: 0
  2312                           ;Buttons.c: 137:                         if( temp > 0x59 ) temp = 0;
  2313   000826  51FE               	movf	ActionButtons@temp& (0+255),w,b
  2314   000828  0A80               	xorlw	128
  2315   00082A  0F26               	addlw	-218
  2316   00082C  A0D8               	btfss	status,0,c
  2317   00082E  EF1B  F004         	goto	u7341
  2318   000832  EF1D  F004         	goto	u7340
  2319   000836                     u7341:
  2320   000836  EF1F  F004         	goto	l9607
  2321   00083A                     u7340:
  2322   00083A                     
  2323                           ; BSR set to: 0
  2324   00083A  0E00               	movlw	0
  2325   00083C  6FFE               	movwf	ActionButtons@temp& (0+255),b
  2326   00083E                     l9607:
  2327                           
  2328                           ; BSR set to: 0
  2329                           ;Buttons.c: 138:                         real_rtc_data[ 1 ] = temp;
  2330   00083E  C0FE  F002         	movff	ActionButtons@temp,_real_rtc_data+1
  2331   000842                     
  2332                           ; BSR set to: 0
  2333                           ;Buttons.c: 139:                         Ds1307MinuteSet(real_rtc_data[ 1 ]);
  2334   000842  5002               	movf	(_real_rtc_data+1)^0,w,c
  2335   000844  ECA4  F014         	call	_Ds1307MinuteSet
  2336   000848                     l9611:
  2337                           
  2338                           ;Buttons.c: 140:                         continue_pressed_cnt = 0;
  2339   000848  0E00               	movlw	0
  2340   00084A  6E0B               	movwf	(_continue_pressed_cnt+1)^0,c
  2341   00084C  0E00               	movlw	0
  2342   00084E  6E0A               	movwf	_continue_pressed_cnt^0,c
  2343   000850  EFAF  F006         	goto	l1184
  2344   000854                     l9615:
  2345                           
  2346                           ;Buttons.c: 144:                     continue_pressed_cnt ++;
  2347   000854  4A0A               	infsnz	_continue_pressed_cnt^0,f,c
  2348   000856  2A0B               	incf	(_continue_pressed_cnt+1)^0,f,c
  2349   000858                     
  2350                           ;Buttons.c: 145:                     if( continue_pressed_cnt > CONTINUE_PRESSED_TIME ) 
      +                          {
  2351   000858  500A               	movf	_continue_pressed_cnt^0,w,c
  2352   00085A  5C08               	subwf	_CONTINUE_PRESSED_TIME^0,w,c
  2353   00085C  500B               	movf	(_continue_pressed_cnt+1)^0,w,c
  2354   00085E  5809               	subwfb	(_CONTINUE_PRESSED_TIME+1)^0,w,c
  2355   000860  B0D8               	btfsc	status,0,c
  2356   000862  EF35  F004         	goto	u7351
  2357   000866  EF37  F004         	goto	u7350
  2358   00086A                     u7351:
  2359   00086A  EFAF  F006         	goto	l1184
  2360   00086E                     u7350:
  2361   00086E                     
  2362                           ;Buttons.c: 146:                         temp = real_rtc_data[ 0 ]; temp ++;
  2363   00086E  C001  F0FE         	movff	_real_rtc_data,ActionButtons@temp
  2364   000872  0100               	movlb	0	; () banked
  2365   000874  2BFE               	incf	ActionButtons@temp& (0+255),f,b
  2366   000876                     
  2367                           ; BSR set to: 0
  2368                           ;Buttons.c: 147:                         if( temp % 16 >= 10 ) temp += 6;
  2369   000876  C0FE  F063         	movff	ActionButtons@temp,??_ActionButtons
  2370   00087A  6A64               	clrf	(??_ActionButtons+1)^0,c
  2371   00087C  BE63               	btfsc	??_ActionButtons^0,7,c
  2372   00087E  0664               	decf	(??_ActionButtons+1)^0,f,c
  2373   000880  0E0F               	movlw	15
  2374   000882  1663               	andwf	??_ActionButtons^0,f,c
  2375   000884  0E00               	movlw	0
  2376   000886  1664               	andwf	(??_ActionButtons+1)^0,f,c
  2377   000888  BE64               	btfsc	(??_ActionButtons+1)^0,7,c
  2378   00088A  EF50  F004         	goto	u7361
  2379   00088E  5064               	movf	(??_ActionButtons+1)^0,w,c
  2380   000890  E109               	bnz	u7360
  2381   000892  0E0A               	movlw	10
  2382   000894  5C63               	subwf	??_ActionButtons^0,w,c
  2383   000896  A0D8               	btfss	status,0,c
  2384   000898  EF50  F004         	goto	u7361
  2385   00089C  EF52  F004         	goto	u7360
  2386   0008A0                     u7361:
  2387   0008A0  EF54  F004         	goto	l1203
  2388   0008A4                     u7360:
  2389   0008A4                     
  2390                           ; BSR set to: 0
  2391   0008A4  0E06               	movlw	6
  2392   0008A6  27FE               	addwf	ActionButtons@temp& (0+255),f,b
  2393   0008A8                     l1203:
  2394                           
  2395                           ; BSR set to: 0
  2396                           ;Buttons.c: 148:                         if( temp > 0x59 ) temp = 0;
  2397   0008A8  51FE               	movf	ActionButtons@temp& (0+255),w,b
  2398   0008AA  0A80               	xorlw	128
  2399   0008AC  0F26               	addlw	-218
  2400   0008AE  A0D8               	btfss	status,0,c
  2401   0008B0  EF5C  F004         	goto	u7371
  2402   0008B4  EF5E  F004         	goto	u7370
  2403   0008B8                     u7371:
  2404   0008B8  EF60  F004         	goto	l9629
  2405   0008BC                     u7370:
  2406   0008BC                     
  2407                           ; BSR set to: 0
  2408   0008BC  0E00               	movlw	0
  2409   0008BE  6FFE               	movwf	ActionButtons@temp& (0+255),b
  2410   0008C0                     l9629:
  2411                           
  2412                           ; BSR set to: 0
  2413                           ;Buttons.c: 149:                         real_rtc_data[ 0 ] = temp;
  2414   0008C0  C0FE  F001         	movff	ActionButtons@temp,_real_rtc_data
  2415   0008C4                     
  2416                           ; BSR set to: 0
  2417                           ;Buttons.c: 150:                         Ds1307SecondSet(real_rtc_data[ 0 ]);
  2418   0008C4  5001               	movf	_real_rtc_data^0,w,c
  2419   0008C6  EC95  F014         	call	_Ds1307SecondSet
  2420   0008CA  EF24  F004         	goto	l9611
  2421   0008CE                     l9637:
  2422                           
  2423                           ;Buttons.c: 155:                     BTN_CLICK_STATE = 0;
  2424   0008CE  0E00               	movlw	0
  2425   0008D0  6E2F               	movwf	_BTN_CLICK_STATE^0,c
  2426   0008D2                     
  2427                           ;Buttons.c: 156:                     temp = real_rtc_data[ 1 ]; temp ++;
  2428   0008D2  C002  F0FE         	movff	_real_rtc_data+1,ActionButtons@temp
  2429   0008D6  0100               	movlb	0	; () banked
  2430   0008D8  2BFE               	incf	ActionButtons@temp& (0+255),f,b
  2431   0008DA                     
  2432                           ; BSR set to: 0
  2433                           ;Buttons.c: 157:                     if( temp % 16 >= 10 ) temp += 6;
  2434   0008DA  C0FE  F063         	movff	ActionButtons@temp,??_ActionButtons
  2435   0008DE  6A64               	clrf	(??_ActionButtons+1)^0,c
  2436   0008E0  BE63               	btfsc	??_ActionButtons^0,7,c
  2437   0008E2  0664               	decf	(??_ActionButtons+1)^0,f,c
  2438   0008E4  0E0F               	movlw	15
  2439   0008E6  1663               	andwf	??_ActionButtons^0,f,c
  2440   0008E8  0E00               	movlw	0
  2441   0008EA  1664               	andwf	(??_ActionButtons+1)^0,f,c
  2442   0008EC  BE64               	btfsc	(??_ActionButtons+1)^0,7,c
  2443   0008EE  EF82  F004         	goto	u7381
  2444   0008F2  5064               	movf	(??_ActionButtons+1)^0,w,c
  2445   0008F4  E109               	bnz	u7380
  2446   0008F6  0E0A               	movlw	10
  2447   0008F8  5C63               	subwf	??_ActionButtons^0,w,c
  2448   0008FA  A0D8               	btfss	status,0,c
  2449   0008FC  EF82  F004         	goto	u7381
  2450   000900  EF84  F004         	goto	u7380
  2451   000904                     u7381:
  2452   000904  EF86  F004         	goto	l1206
  2453   000908                     u7380:
  2454   000908                     
  2455                           ; BSR set to: 0
  2456   000908  0E06               	movlw	6
  2457   00090A  27FE               	addwf	ActionButtons@temp& (0+255),f,b
  2458   00090C                     l1206:
  2459                           
  2460                           ; BSR set to: 0
  2461                           ;Buttons.c: 158:                     if( temp > 0x59 ) temp = 0;
  2462   00090C  51FE               	movf	ActionButtons@temp& (0+255),w,b
  2463   00090E  0A80               	xorlw	128
  2464   000910  0F26               	addlw	-218
  2465   000912  A0D8               	btfss	status,0,c
  2466   000914  EF8E  F004         	goto	u7391
  2467   000918  EF90  F004         	goto	u7390
  2468   00091C                     u7391:
  2469   00091C  EF92  F004         	goto	l9649
  2470   000920                     u7390:
  2471   000920                     
  2472                           ; BSR set to: 0
  2473   000920  0E00               	movlw	0
  2474   000922  6FFE               	movwf	ActionButtons@temp& (0+255),b
  2475   000924                     l9649:
  2476                           
  2477                           ; BSR set to: 0
  2478                           ;Buttons.c: 159:                     real_rtc_data[ 1 ] = temp;
  2479   000924  C0FE  F002         	movff	ActionButtons@temp,_real_rtc_data+1
  2480   000928                     
  2481                           ; BSR set to: 0
  2482                           ;Buttons.c: 160:                     Ds1307MinuteSet(real_rtc_data[ 1 ]);
  2483   000928  5002               	movf	(_real_rtc_data+1)^0,w,c
  2484   00092A  ECA4  F014         	call	_Ds1307MinuteSet
  2485                           
  2486                           ;Buttons.c: 161:                     break;
  2487   00092E  EFAF  F006         	goto	l1184
  2488   000932                     l9653:
  2489                           
  2490                           ;Buttons.c: 163:                     BTN_CLICK_STATE = 0;
  2491   000932  0E00               	movlw	0
  2492   000934  6E2F               	movwf	_BTN_CLICK_STATE^0,c
  2493   000936                     
  2494                           ;Buttons.c: 164:                     temp = real_rtc_data[ 0 ]; temp ++;
  2495   000936  C001  F0FE         	movff	_real_rtc_data,ActionButtons@temp
  2496   00093A  0100               	movlb	0	; () banked
  2497   00093C  2BFE               	incf	ActionButtons@temp& (0+255),f,b
  2498   00093E                     
  2499                           ; BSR set to: 0
  2500                           ;Buttons.c: 165:                     if( temp % 16 >= 10 ) temp += 6;
  2501   00093E  C0FE  F063         	movff	ActionButtons@temp,??_ActionButtons
  2502   000942  6A64               	clrf	(??_ActionButtons+1)^0,c
  2503   000944  BE63               	btfsc	??_ActionButtons^0,7,c
  2504   000946  0664               	decf	(??_ActionButtons+1)^0,f,c
  2505   000948  0E0F               	movlw	15
  2506   00094A  1663               	andwf	??_ActionButtons^0,f,c
  2507   00094C  0E00               	movlw	0
  2508   00094E  1664               	andwf	(??_ActionButtons+1)^0,f,c
  2509   000950  BE64               	btfsc	(??_ActionButtons+1)^0,7,c
  2510   000952  EFB4  F004         	goto	u7401
  2511   000956  5064               	movf	(??_ActionButtons+1)^0,w,c
  2512   000958  E109               	bnz	u7400
  2513   00095A  0E0A               	movlw	10
  2514   00095C  5C63               	subwf	??_ActionButtons^0,w,c
  2515   00095E  A0D8               	btfss	status,0,c
  2516   000960  EFB4  F004         	goto	u7401
  2517   000964  EFB6  F004         	goto	u7400
  2518   000968                     u7401:
  2519   000968  EFB8  F004         	goto	l1209
  2520   00096C                     u7400:
  2521   00096C                     
  2522                           ; BSR set to: 0
  2523   00096C  0E06               	movlw	6
  2524   00096E  27FE               	addwf	ActionButtons@temp& (0+255),f,b
  2525   000970                     l1209:
  2526                           
  2527                           ; BSR set to: 0
  2528                           ;Buttons.c: 166:                     if( temp > 0x59 ) temp = 0;
  2529   000970  51FE               	movf	ActionButtons@temp& (0+255),w,b
  2530   000972  0A80               	xorlw	128
  2531   000974  0F26               	addlw	-218
  2532   000976  A0D8               	btfss	status,0,c
  2533   000978  EFC0  F004         	goto	u7411
  2534   00097C  EFC2  F004         	goto	u7410
  2535   000980                     u7411:
  2536   000980  EFC4  F004         	goto	l9665
  2537   000984                     u7410:
  2538   000984                     
  2539                           ; BSR set to: 0
  2540   000984  0E00               	movlw	0
  2541   000986  6FFE               	movwf	ActionButtons@temp& (0+255),b
  2542   000988                     l9665:
  2543                           
  2544                           ; BSR set to: 0
  2545                           ;Buttons.c: 167:                     real_rtc_data[ 0 ] = temp;
  2546   000988  C0FE  F001         	movff	ActionButtons@temp,_real_rtc_data
  2547   00098C                     
  2548                           ; BSR set to: 0
  2549                           ;Buttons.c: 168:                     Ds1307SecondSet(real_rtc_data[ 0 ]);
  2550   00098C  5001               	movf	_real_rtc_data^0,w,c
  2551   00098E  EC95  F014         	call	_Ds1307SecondSet
  2552                           
  2553                           ;Buttons.c: 169:                     break;
  2554   000992  EFAF  F006         	goto	l1184
  2555   000996                     l9671:
  2556   000996  502F               	movf	_BTN_CLICK_STATE^0,w,c
  2557   000998  6E63               	movwf	??_ActionButtons^0,c
  2558   00099A  6A64               	clrf	(??_ActionButtons+1)^0,c
  2559                           
  2560                           ; Switch on 2 bytes has been partitioned into a top level switch of size 1, and 1 sub-sw
      +                          itches
  2561                           ; Switch size 1, requested type "simple"
  2562                           ; Number of cases is 1, Range of values is 0 to 0
  2563                           ; switch strategies available:
  2564                           ; Name         Instructions Cycles
  2565                           ; simple_byte            4     3 (average)
  2566                           ;	Chosen strategy is simple_byte
  2567   00099C  5064               	movf	(??_ActionButtons+1)^0,w,c
  2568   00099E  0A00               	xorlw	0	; case 0
  2569   0009A0  B4D8               	btfsc	status,2,c
  2570   0009A2  EFD5  F004         	goto	l10635
  2571   0009A6  EFAF  F006         	goto	l1184
  2572   0009AA                     l10635:
  2573                           
  2574                           ; Switch size 1, requested type "simple"
  2575                           ; Number of cases is 6, Range of values is 11 to 18
  2576                           ; switch strategies available:
  2577                           ; Name         Instructions Cycles
  2578                           ; simple_byte           19    10 (average)
  2579                           ;	Chosen strategy is simple_byte
  2580   0009AA  5063               	movf	??_ActionButtons^0,w,c
  2581   0009AC  0A0B               	xorlw	11	; case 11
  2582   0009AE  B4D8               	btfsc	status,2,c
  2583   0009B0  EF73  F003         	goto	l1185
  2584   0009B4  0A07               	xorlw	7	; case 12
  2585   0009B6  B4D8               	btfsc	status,2,c
  2586   0009B8  EF67  F004         	goto	l9637
  2587   0009BC  0A01               	xorlw	1	; case 13
  2588   0009BE  B4D8               	btfsc	status,2,c
  2589   0009C0  EF99  F004         	goto	l9653
  2590   0009C4  0A03               	xorlw	3	; case 14
  2591   0009C6  B4D8               	btfsc	status,2,c
  2592   0009C8  EF39  F003         	goto	l9539
  2593   0009CC  0A1F               	xorlw	31	; case 17
  2594   0009CE  B4D8               	btfsc	status,2,c
  2595   0009D0  EFE9  F003         	goto	l9593
  2596   0009D4  0A03               	xorlw	3	; case 18
  2597   0009D6  B4D8               	btfsc	status,2,c
  2598   0009D8  EF2A  F004         	goto	l9615
  2599   0009DC  EFAF  F006         	goto	l1184
  2600   0009E0                     l9673:
  2601                           
  2602                           ;Buttons.c: 180:                     BTN_CLICK_STATE = 0;
  2603   0009E0  0E00               	movlw	0
  2604   0009E2  6E2F               	movwf	_BTN_CLICK_STATE^0,c
  2605                           
  2606                           ;Buttons.c: 181:                     if( counter_skip_flg ) return;
  2607   0009E4  5036               	movf	_counter_skip_flg^0,w,c
  2608   0009E6  B4D8               	btfsc	status,2,c
  2609   0009E8  EFF8  F004         	goto	u7421
  2610   0009EC  EFFA  F004         	goto	u7420
  2611   0009F0                     u7421:
  2612   0009F0  EFFC  F004         	goto	l9677
  2613   0009F4                     u7420:
  2614   0009F4  EFAF  F006         	goto	l1184
  2615   0009F8                     l9677:
  2616                           
  2617                           ;Buttons.c: 182:                     if( !counter_enable_flg ) { SYSTEM_STATE_FLG = 200;
      +                           StartCounter(); blink_enable_flg = 0; }
  2618   0009F8  5038               	movf	_counter_enable_flg^0,w,c
  2619   0009FA  A4D8               	btfss	status,2,c
  2620   0009FC  EF02  F005         	goto	u7431
  2621   000A00  EF04  F005         	goto	u7430
  2622   000A04                     u7431:
  2623   000A04  EF0C  F005         	goto	l9685
  2624   000A08                     u7430:
  2625   000A08  0EC8               	movlw	200
  2626   000A0A  6E48               	movwf	_SYSTEM_STATE_FLG^0,c
  2627   000A0C  EC3F  F015         	call	_StartCounter	;wreg free
  2628   000A10                     l9683:
  2629   000A10  0E00               	movlw	0
  2630   000A12  6E32               	movwf	_blink_enable_flg^0,c
  2631   000A14  EF12  F005         	goto	l9691
  2632   000A18                     l9685:
  2633   000A18  0EC9               	movlw	201
  2634   000A1A  6E48               	movwf	_SYSTEM_STATE_FLG^0,c
  2635   000A1C  EC3C  F015         	call	_StopCounter	;wreg free
  2636   000A20  EF08  F005         	goto	l9683
  2637   000A24                     l9691:
  2638                           
  2639                           ;Buttons.c: 184:                     temp_system_state = SYSTEM_STATE_FLG;
  2640   000A24  C048  F044         	movff	_SYSTEM_STATE_FLG,_temp_system_state
  2641   000A28  EFAF  F006         	goto	l1184
  2642   000A2C                     l9695:
  2643                           
  2644                           ;Buttons.c: 187:                     if( !counter_enable_flg ) return;
  2645   000A2C  5038               	movf	_counter_enable_flg^0,w,c
  2646   000A2E  A4D8               	btfss	status,2,c
  2647   000A30  EF1C  F005         	goto	u7441
  2648   000A34  EF1E  F005         	goto	u7440
  2649   000A38                     u7441:
  2650   000A38  EF20  F005         	goto	l9699
  2651   000A3C                     u7440:
  2652   000A3C  EFAF  F006         	goto	l1184
  2653   000A40                     l9699:
  2654                           
  2655                           ;Buttons.c: 188:                     counter_skip_flg = 1 - counter_skip_flg;
  2656   000A40  0E01               	movlw	1
  2657   000A42  6E63               	movwf	??_ActionButtons^0,c
  2658   000A44  0E00               	movlw	0
  2659   000A46  6E64               	movwf	(??_ActionButtons+1)^0,c
  2660   000A48  5036               	movf	_counter_skip_flg^0,w,c
  2661   000A4A  5E63               	subwf	??_ActionButtons^0,f,c
  2662   000A4C  0E00               	movlw	0
  2663   000A4E  5A64               	subwfb	(??_ActionButtons+1)^0,f,c
  2664   000A50  5063               	movf	??_ActionButtons^0,w,c
  2665   000A52  1064               	iorwf	(??_ActionButtons+1)^0,w,c
  2666   000A54  A4D8               	btfss	status,2,c
  2667   000A56  EF2F  F005         	goto	u7451
  2668   000A5A  EF32  F005         	goto	u7450
  2669   000A5E                     u7451:
  2670   000A5E  0E01               	movlw	1
  2671   000A60  EF33  F005         	goto	u7460
  2672   000A64                     u7450:
  2673   000A64  0E00               	movlw	0
  2674   000A66                     u7460:
  2675   000A66  6E36               	movwf	_counter_skip_flg^0,c
  2676   000A68  EFE5  F003         	goto	l9591
  2677   000A6C                     l9705:
  2678                           
  2679                           ;Buttons.c: 192:                     UpDownTransfer();
  2680   000A6C  ECF3  F013         	call	_UpDownTransfer	;wreg free
  2681   000A70                     
  2682                           ;Buttons.c: 193:                     counter_skip_flg = 0;
  2683   000A70  0E00               	movlw	0
  2684   000A72  6E36               	movwf	_counter_skip_flg^0,c
  2685   000A74  EFE5  F003         	goto	l9591
  2686   000A78                     l9715:
  2687   000A78  502F               	movf	_BTN_CLICK_STATE^0,w,c
  2688   000A7A  6E63               	movwf	??_ActionButtons^0,c
  2689   000A7C  6A64               	clrf	(??_ActionButtons+1)^0,c
  2690                           
  2691                           ; Switch on 2 bytes has been partitioned into a top level switch of size 1, and 1 sub-sw
      +                          itches
  2692                           ; Switch size 1, requested type "simple"
  2693                           ; Number of cases is 1, Range of values is 0 to 0
  2694                           ; switch strategies available:
  2695                           ; Name         Instructions Cycles
  2696                           ; simple_byte            4     3 (average)
  2697                           ;	Chosen strategy is simple_byte
  2698   000A7E  5064               	movf	(??_ActionButtons+1)^0,w,c
  2699   000A80  0A00               	xorlw	0	; case 0
  2700   000A82  B4D8               	btfsc	status,2,c
  2701   000A84  EF46  F005         	goto	l10637
  2702   000A88  EFAF  F006         	goto	l1184
  2703   000A8C                     l10637:
  2704                           
  2705                           ; Switch size 1, requested type "simple"
  2706                           ; Number of cases is 3, Range of values is 14 to 20
  2707                           ; switch strategies available:
  2708                           ; Name         Instructions Cycles
  2709                           ; simple_byte           10     6 (average)
  2710                           ;	Chosen strategy is simple_byte
  2711   000A8C  5063               	movf	??_ActionButtons^0,w,c
  2712   000A8E  0A0E               	xorlw	14	; case 14
  2713   000A90  B4D8               	btfsc	status,2,c
  2714   000A92  EFF0  F004         	goto	l9673
  2715   000A96  0A01               	xorlw	1	; case 15
  2716   000A98  B4D8               	btfsc	status,2,c
  2717   000A9A  EF16  F005         	goto	l9695
  2718   000A9E  0A1B               	xorlw	27	; case 20
  2719   000AA0  B4D8               	btfsc	status,2,c
  2720   000AA2  EF36  F005         	goto	l9705
  2721   000AA6  EFAF  F006         	goto	l1184
  2722   000AAA                     l9717:
  2723                           
  2724                           ;Buttons.c: 199:             counter_skip_flg = 0; blink_enable_flg = 0;
  2725   000AAA  0E00               	movlw	0
  2726   000AAC  6E36               	movwf	_counter_skip_flg^0,c
  2727   000AAE  0E00               	movlw	0
  2728   000AB0  6E32               	movwf	_blink_enable_flg^0,c
  2729                           
  2730                           ;Buttons.c: 200:             switch( BTN_CLICK_STATE ) {
  2731   000AB2  EFB1  F005         	goto	l9775
  2732   000AB6                     l9719:
  2733                           
  2734                           ;Buttons.c: 202:                     if( !counter_enable_flg ) { SYSTEM_STATE_FLG = 200;
      +                           StartCounter(); blink_enable_flg = 0; }
  2735   000AB6  5038               	movf	_counter_enable_flg^0,w,c
  2736   000AB8  A4D8               	btfss	status,2,c
  2737   000ABA  EF61  F005         	goto	u7471
  2738   000ABE  EF63  F005         	goto	u7470
  2739   000AC2                     u7471:
  2740   000AC2  EF6B  F005         	goto	l9727
  2741   000AC6                     u7470:
  2742   000AC6  0EC8               	movlw	200
  2743   000AC8  6E48               	movwf	_SYSTEM_STATE_FLG^0,c
  2744   000ACA  EC3F  F015         	call	_StartCounter	;wreg free
  2745   000ACE                     l9725:
  2746   000ACE  0E00               	movlw	0
  2747   000AD0  6E32               	movwf	_blink_enable_flg^0,c
  2748   000AD2  EF71  F005         	goto	l9733
  2749   000AD6                     l9727:
  2750   000AD6  0EC9               	movlw	201
  2751   000AD8  6E48               	movwf	_SYSTEM_STATE_FLG^0,c
  2752   000ADA  EC3C  F015         	call	_StopCounter	;wreg free
  2753   000ADE  EF67  F005         	goto	l9725
  2754   000AE2                     l9733:
  2755                           
  2756                           ;Buttons.c: 204:                     BTN_CLICK_STATE = 0; temp_system_state = SYSTEM_STA
      +                          TE_FLG;
  2757   000AE2  0E00               	movlw	0
  2758   000AE4  6E2F               	movwf	_BTN_CLICK_STATE^0,c
  2759   000AE6  EF12  F005         	goto	l9691
  2760   000AEA                     l9739:
  2761                           
  2762                           ;Buttons.c: 207:                     if( counter_direction_flg == 1 ){
  2763   000AEA  0437               	decf	_counter_direction_flg^0,w,c
  2764   000AEC  A4D8               	btfss	status,2,c
  2765   000AEE  EF7B  F005         	goto	u7481
  2766   000AF2  EF7D  F005         	goto	u7480
  2767   000AF6                     u7481:
  2768   000AF6  EF85  F005         	goto	l9743
  2769   000AFA                     u7480:
  2770   000AFA                     
  2771                           ;Buttons.c: 208:                         counter_up_hour = 0;
  2772   000AFA  0E00               	movlw	0
  2773   000AFC  6E3B               	movwf	_counter_up_hour^0,c
  2774                           
  2775                           ;Buttons.c: 209:                         counter_up_minute = 0;
  2776   000AFE  0E00               	movlw	0
  2777   000B00  6E3A               	movwf	_counter_up_minute^0,c
  2778                           
  2779                           ;Buttons.c: 210:                         counter_up_second = 0;
  2780   000B02  0E00               	movlw	0
  2781   000B04  6E39               	movwf	_counter_up_second^0,c
  2782                           
  2783                           ;Buttons.c: 211:                     }
  2784   000B06  EFE5  F003         	goto	l9591
  2785   000B0A                     l9743:
  2786   000B0A  5037               	movf	_counter_direction_flg^0,w,c
  2787   000B0C  A4D8               	btfss	status,2,c
  2788   000B0E  EF8B  F005         	goto	u7491
  2789   000B12  EF8D  F005         	goto	u7490
  2790   000B16                     u7491:
  2791   000B16  EFE5  F003         	goto	l9591
  2792   000B1A                     u7490:
  2793   000B1A                     l9745:
  2794                           
  2795                           ;Buttons.c: 213:                         counter_down_hour = counter_down_set_hour;
  2796   000B1A  C03E  F041         	movff	_counter_down_set_hour,_counter_down_hour
  2797                           
  2798                           ;Buttons.c: 214:                         counter_down_minute = counter_down_set_minute;
  2799   000B1E  C03D  F040         	movff	_counter_down_set_minute,_counter_down_minute
  2800                           
  2801                           ;Buttons.c: 215:                         counter_down_second = counter_down_set_second;
  2802   000B22  C03C  F03F         	movff	_counter_down_set_second,_counter_down_second
  2803   000B26  EFE5  F003         	goto	l9591
  2804   000B2A                     l9751:
  2805                           
  2806                           ;Buttons.c: 220:                     UpDownTransfer();
  2807   000B2A  ECF3  F013         	call	_UpDownTransfer	;wreg free
  2808   000B2E  EFE5  F003         	goto	l9591
  2809   000B32                     l9757:
  2810                           
  2811                           ;Buttons.c: 224:                     if( counter_direction_flg == 1 ) { BTN_CLICK_STATE 
      +                          = 0; return; }
  2812   000B32  0437               	decf	_counter_direction_flg^0,w,c
  2813   000B34  A4D8               	btfss	status,2,c
  2814   000B36  EF9F  F005         	goto	u7501
  2815   000B3A  EFA1  F005         	goto	u7500
  2816   000B3E                     u7501:
  2817   000B3E  EFA3  F005         	goto	l9763
  2818   000B42                     u7500:
  2819   000B42  EFE5  F003         	goto	l9591
  2820   000B46                     l9763:
  2821                           
  2822                           ;Buttons.c: 225:                     SYSTEM_STATE_FLG = 202;
  2823   000B46  0ECA               	movlw	202
  2824   000B48  6E48               	movwf	_SYSTEM_STATE_FLG^0,c
  2825                           
  2826                           ;Buttons.c: 226:                     break;
  2827   000B4A  EFAF  F006         	goto	l1184
  2828   000B4E                     l9765:
  2829                           
  2830                           ;Buttons.c: 228:                     if( counter_direction_flg == 1 ) { BTN_CLICK_STATE 
      +                          = 0; return; }
  2831   000B4E  0437               	decf	_counter_direction_flg^0,w,c
  2832   000B50  A4D8               	btfss	status,2,c
  2833   000B52  EFAD  F005         	goto	u7511
  2834   000B56  EFAF  F005         	goto	u7510
  2835   000B5A                     u7511:
  2836   000B5A  EFA3  F005         	goto	l9763
  2837   000B5E                     u7510:
  2838   000B5E  EFE5  F003         	goto	l9591
  2839   000B62                     l9775:
  2840   000B62  502F               	movf	_BTN_CLICK_STATE^0,w,c
  2841   000B64  6E63               	movwf	??_ActionButtons^0,c
  2842   000B66  6A64               	clrf	(??_ActionButtons+1)^0,c
  2843                           
  2844                           ; Switch on 2 bytes has been partitioned into a top level switch of size 1, and 1 sub-sw
      +                          itches
  2845                           ; Switch size 1, requested type "simple"
  2846                           ; Number of cases is 1, Range of values is 0 to 0
  2847                           ; switch strategies available:
  2848                           ; Name         Instructions Cycles
  2849                           ; simple_byte            4     3 (average)
  2850                           ;	Chosen strategy is simple_byte
  2851   000B68  5064               	movf	(??_ActionButtons+1)^0,w,c
  2852   000B6A  0A00               	xorlw	0	; case 0
  2853   000B6C  B4D8               	btfsc	status,2,c
  2854   000B6E  EFBB  F005         	goto	l10639
  2855   000B72  EFAF  F006         	goto	l1184
  2856   000B76                     l10639:
  2857                           
  2858                           ; Switch size 1, requested type "simple"
  2859                           ; Number of cases is 5, Range of values is 12 to 20
  2860                           ; switch strategies available:
  2861                           ; Name         Instructions Cycles
  2862                           ; simple_byte           16     9 (average)
  2863                           ;	Chosen strategy is simple_byte
  2864   000B76  5063               	movf	??_ActionButtons^0,w,c
  2865   000B78  0A0C               	xorlw	12	; case 12
  2866   000B7A  B4D8               	btfsc	status,2,c
  2867   000B7C  EF99  F005         	goto	l9757
  2868   000B80  0A01               	xorlw	1	; case 13
  2869   000B82  B4D8               	btfsc	status,2,c
  2870   000B84  EFA7  F005         	goto	l9765
  2871   000B88  0A03               	xorlw	3	; case 14
  2872   000B8A  B4D8               	btfsc	status,2,c
  2873   000B8C  EF5B  F005         	goto	l9719
  2874   000B90  0A01               	xorlw	1	; case 15
  2875   000B92  B4D8               	btfsc	status,2,c
  2876   000B94  EF75  F005         	goto	l9739
  2877   000B98  0A1B               	xorlw	27	; case 20
  2878   000B9A  B4D8               	btfsc	status,2,c
  2879   000B9C  EF95  F005         	goto	l9751
  2880   000BA0  EFAF  F006         	goto	l1184
  2881   000BA4                     l9777:
  2882                           
  2883                           ;Buttons.c: 234:             counter_direction_flg = 0;
  2884   000BA4  0E00               	movlw	0
  2885   000BA6  6E37               	movwf	_counter_direction_flg^0,c
  2886                           
  2887                           ;Buttons.c: 235:             blink_enable_flg = 0;
  2888   000BA8  0E00               	movlw	0
  2889   000BAA  6E32               	movwf	_blink_enable_flg^0,c
  2890                           
  2891                           ;Buttons.c: 236:             switch( BTN_CLICK_STATE ) {
  2892   000BAC  EFEE  F005         	goto	l9813
  2893   000BB0                     l9783:
  2894                           
  2895                           ;Buttons.c: 242:                     SYSTEM_STATE_FLG = 200; StartCounter(); blink_enabl
      +                          e_flg = 0;
  2896   000BB0  0EC8               	movlw	200
  2897   000BB2  6E48               	movwf	_SYSTEM_STATE_FLG^0,c
  2898   000BB4  EC3F  F015         	call	_StartCounter	;wreg free
  2899   000BB8  0E00               	movlw	0
  2900   000BBA  6E32               	movwf	_blink_enable_flg^0,c
  2901   000BBC  EFE5  F003         	goto	l9591
  2902   000BC0                     l9797:
  2903                           
  2904                           ;Buttons.c: 252:                     counter_direction_flg = 1;
  2905   000BC0  0E01               	movlw	1
  2906   000BC2  6E37               	movwf	_counter_direction_flg^0,c
  2907                           
  2908                           ;Buttons.c: 253:                     SYSTEM_STATE_FLG = 201; StopCounter();
  2909   000BC4  0EC9               	movlw	201
  2910   000BC6  6E48               	movwf	_SYSTEM_STATE_FLG^0,c
  2911   000BC8  EC3C  F015         	call	_StopCounter	;wreg free
  2912   000BCC                     
  2913                           ;Buttons.c: 254:                     counter_up_hour = counter_down_hour;
  2914   000BCC  C041  F03B         	movff	_counter_down_hour,_counter_up_hour
  2915   000BD0                     
  2916                           ;Buttons.c: 255:                     counter_up_minute = counter_down_minute;
  2917   000BD0  C040  F03A         	movff	_counter_down_minute,_counter_up_minute
  2918   000BD4                     
  2919                           ;Buttons.c: 256:                     counter_up_second = counter_down_second;
  2920   000BD4  C03F  F039         	movff	_counter_down_second,_counter_up_second
  2921   000BD8  EFE5  F003         	goto	l9591
  2922   000BDC                     l9813:
  2923   000BDC  502F               	movf	_BTN_CLICK_STATE^0,w,c
  2924   000BDE  6E63               	movwf	??_ActionButtons^0,c
  2925   000BE0  6A64               	clrf	(??_ActionButtons+1)^0,c
  2926                           
  2927                           ; Switch on 2 bytes has been partitioned into a top level switch of size 1, and 1 sub-sw
      +                          itches
  2928                           ; Switch size 1, requested type "simple"
  2929                           ; Number of cases is 1, Range of values is 0 to 0
  2930                           ; switch strategies available:
  2931                           ; Name         Instructions Cycles
  2932                           ; simple_byte            4     3 (average)
  2933                           ;	Chosen strategy is simple_byte
  2934   000BE2  5064               	movf	(??_ActionButtons+1)^0,w,c
  2935   000BE4  0A00               	xorlw	0	; case 0
  2936   000BE6  B4D8               	btfsc	status,2,c
  2937   000BE8  EFF8  F005         	goto	l10641
  2938   000BEC  EFAF  F006         	goto	l1184
  2939   000BF0                     l10641:
  2940                           
  2941                           ; Switch size 1, requested type "simple"
  2942                           ; Number of cases is 5, Range of values is 12 to 20
  2943                           ; switch strategies available:
  2944                           ; Name         Instructions Cycles
  2945                           ; simple_byte           16     9 (average)
  2946                           ;	Chosen strategy is simple_byte
  2947   000BF0  5063               	movf	??_ActionButtons^0,w,c
  2948   000BF2  0A0C               	xorlw	12	; case 12
  2949   000BF4  B4D8               	btfsc	status,2,c
  2950   000BF6  EFA3  F005         	goto	l9763
  2951   000BFA  0A01               	xorlw	1	; case 13
  2952   000BFC  B4D8               	btfsc	status,2,c
  2953   000BFE  EFA3  F005         	goto	l9763
  2954   000C02  0A03               	xorlw	3	; case 14
  2955   000C04  B4D8               	btfsc	status,2,c
  2956   000C06  EFD8  F005         	goto	l9783
  2957   000C0A  0A01               	xorlw	1	; case 15
  2958   000C0C  B4D8               	btfsc	status,2,c
  2959   000C0E  EF8D  F005         	goto	l9745
  2960   000C12  0A1B               	xorlw	27	; case 20
  2961   000C14  B4D8               	btfsc	status,2,c
  2962   000C16  EFE0  F005         	goto	l9797
  2963   000C1A  EFAF  F006         	goto	l1184
  2964   000C1E                     l9815:
  2965                           
  2966                           ;Buttons.c: 264:                     continue_pressed_cnt ++;
  2967   000C1E  4A0A               	infsnz	_continue_pressed_cnt^0,f,c
  2968   000C20  2A0B               	incf	(_continue_pressed_cnt+1)^0,f,c
  2969   000C22                     
  2970                           ;Buttons.c: 265:                     if( continue_pressed_cnt > CONTINUE_PRESSED_TIME ) 
      +                          {
  2971   000C22  500A               	movf	_continue_pressed_cnt^0,w,c
  2972   000C24  5C08               	subwf	_CONTINUE_PRESSED_TIME^0,w,c
  2973   000C26  500B               	movf	(_continue_pressed_cnt+1)^0,w,c
  2974   000C28  5809               	subwfb	(_CONTINUE_PRESSED_TIME+1)^0,w,c
  2975   000C2A  B0D8               	btfsc	status,0,c
  2976   000C2C  EF1A  F006         	goto	u7521
  2977   000C30  EF1C  F006         	goto	u7520
  2978   000C34                     u7521:
  2979   000C34  EFAF  F006         	goto	l1184
  2980   000C38                     u7520:
  2981   000C38                     
  2982                           ;Buttons.c: 266:                         IncValProcess(); continue_pressed_cnt = 0;
  2983   000C38  EC10  F014         	call	_IncValProcess	;wreg free
  2984   000C3C  EF24  F004         	goto	l9611
  2985   000C40                     l9825:
  2986                           
  2987                           ;Buttons.c: 270:                     continue_pressed_cnt ++;
  2988   000C40  4A0A               	infsnz	_continue_pressed_cnt^0,f,c
  2989   000C42  2A0B               	incf	(_continue_pressed_cnt+1)^0,f,c
  2990   000C44                     
  2991                           ;Buttons.c: 271:                     if( continue_pressed_cnt > CONTINUE_PRESSED_TIME ) 
      +                          {
  2992   000C44  500A               	movf	_continue_pressed_cnt^0,w,c
  2993   000C46  5C08               	subwf	_CONTINUE_PRESSED_TIME^0,w,c
  2994   000C48  500B               	movf	(_continue_pressed_cnt+1)^0,w,c
  2995   000C4A  5809               	subwfb	(_CONTINUE_PRESSED_TIME+1)^0,w,c
  2996   000C4C  B0D8               	btfsc	status,0,c
  2997   000C4E  EF2B  F006         	goto	u7531
  2998   000C52  EF2D  F006         	goto	u7530
  2999   000C56                     u7531:
  3000   000C56  EFAF  F006         	goto	l1184
  3001   000C5A                     u7530:
  3002   000C5A                     
  3003                           ;Buttons.c: 272:                         DecValProcess(); continue_pressed_cnt = 0;
  3004   000C5A  ECAC  F00F         	call	_DecValProcess	;wreg free
  3005   000C5E  EF24  F004         	goto	l9611
  3006   000C62                     l9835:
  3007                           
  3008                           ;Buttons.c: 276:                     blink_enable_flg = 0;
  3009   000C62  0E00               	movlw	0
  3010   000C64  6E32               	movwf	_blink_enable_flg^0,c
  3011   000C66                     
  3012                           ;Buttons.c: 277:                     IncValProcess();
  3013   000C66  EC10  F014         	call	_IncValProcess	;wreg free
  3014   000C6A  EFE5  F003         	goto	l9591
  3015   000C6E                     l9843:
  3016                           
  3017                           ;Buttons.c: 281:                     blink_enable_flg = 0;
  3018   000C6E  0E00               	movlw	0
  3019   000C70  6E32               	movwf	_blink_enable_flg^0,c
  3020   000C72                     
  3021                           ;Buttons.c: 282:                     DecValProcess();
  3022   000C72  ECAC  F00F         	call	_DecValProcess	;wreg free
  3023   000C76  EFE5  F003         	goto	l9591
  3024   000C7A                     l9851:
  3025                           
  3026                           ;Buttons.c: 286:                     if( counter_direction_flg == 1 ){
  3027   000C7A  0437               	decf	_counter_direction_flg^0,w,c
  3028   000C7C  A4D8               	btfss	status,2,c
  3029   000C7E  EF43  F006         	goto	u7541
  3030   000C82  EF45  F006         	goto	u7540
  3031   000C86                     u7541:
  3032   000C86  EFD8  F005         	goto	l9783
  3033   000C8A                     u7540:
  3034   000C8A  EFE5  F003         	goto	l9591
  3035   000C8E                     l9867:
  3036                           
  3037                           ;Buttons.c: 293:                     if( counter_direction_flg == 1 ){
  3038   000C8E  0437               	decf	_counter_direction_flg^0,w,c
  3039   000C90  A4D8               	btfss	status,2,c
  3040   000C92  EF4D  F006         	goto	u7551
  3041   000C96  EF4F  F006         	goto	u7550
  3042   000C9A                     u7551:
  3043   000C9A  EF51  F006         	goto	l9875
  3044   000C9E                     u7550:
  3045   000C9E  EFE5  F003         	goto	l9591
  3046   000CA2                     l9875:
  3047   000CA2  5037               	movf	_counter_direction_flg^0,w,c
  3048   000CA4  A4D8               	btfss	status,2,c
  3049   000CA6  EF57  F006         	goto	u7561
  3050   000CAA  EF59  F006         	goto	u7560
  3051   000CAE                     u7561:
  3052   000CAE  EF5F  F006         	goto	l1258
  3053   000CB2                     u7560:
  3054   000CB2                     
  3055                           ;Buttons.c: 297:                         counter_down_hour = 0;
  3056   000CB2  0E00               	movlw	0
  3057   000CB4  6E41               	movwf	_counter_down_hour^0,c
  3058                           
  3059                           ;Buttons.c: 298:                         counter_down_minute = 0;
  3060   000CB6  0E00               	movlw	0
  3061   000CB8  6E40               	movwf	_counter_down_minute^0,c
  3062                           
  3063                           ;Buttons.c: 299:                         counter_down_second = 0;
  3064   000CBA  0E00               	movlw	0
  3065   000CBC  6E3F               	movwf	_counter_down_second^0,c
  3066   000CBE                     l1258:
  3067                           
  3068                           ;Buttons.c: 301:                     blink_enable_flg = 0;
  3069   000CBE  0E00               	movlw	0
  3070   000CC0  6E32               	movwf	_blink_enable_flg^0,c
  3071                           
  3072                           ;Buttons.c: 302:                     BTN_CLICK_STATE = 0;
  3073   000CC2  0E00               	movlw	0
  3074   000CC4  6E2F               	movwf	_BTN_CLICK_STATE^0,c
  3075   000CC6  EFAF  F006         	goto	l1184
  3076   000CCA                     l9883:
  3077   000CCA  502F               	movf	_BTN_CLICK_STATE^0,w,c
  3078   000CCC  6E63               	movwf	??_ActionButtons^0,c
  3079   000CCE  6A64               	clrf	(??_ActionButtons+1)^0,c
  3080                           
  3081                           ; Switch on 2 bytes has been partitioned into a top level switch of size 1, and 1 sub-sw
      +                          itches
  3082                           ; Switch size 1, requested type "simple"
  3083                           ; Number of cases is 1, Range of values is 0 to 0
  3084                           ; switch strategies available:
  3085                           ; Name         Instructions Cycles
  3086                           ; simple_byte            4     3 (average)
  3087                           ;	Chosen strategy is simple_byte
  3088   000CD0  5064               	movf	(??_ActionButtons+1)^0,w,c
  3089   000CD2  0A00               	xorlw	0	; case 0
  3090   000CD4  B4D8               	btfsc	status,2,c
  3091   000CD6  EF6F  F006         	goto	l10643
  3092   000CDA  EFAF  F006         	goto	l1184
  3093   000CDE                     l10643:
  3094                           
  3095                           ; Switch size 1, requested type "simple"
  3096                           ; Number of cases is 6, Range of values is 12 to 18
  3097                           ; switch strategies available:
  3098                           ; Name         Instructions Cycles
  3099                           ; simple_byte           19    10 (average)
  3100                           ;	Chosen strategy is simple_byte
  3101   000CDE  5063               	movf	??_ActionButtons^0,w,c
  3102   000CE0  0A0C               	xorlw	12	; case 12
  3103   000CE2  B4D8               	btfsc	status,2,c
  3104   000CE4  EF31  F006         	goto	l9835
  3105   000CE8  0A01               	xorlw	1	; case 13
  3106   000CEA  B4D8               	btfsc	status,2,c
  3107   000CEC  EF37  F006         	goto	l9843
  3108   000CF0  0A03               	xorlw	3	; case 14
  3109   000CF2  B4D8               	btfsc	status,2,c
  3110   000CF4  EF3D  F006         	goto	l9851
  3111   000CF8  0A01               	xorlw	1	; case 15
  3112   000CFA  B4D8               	btfsc	status,2,c
  3113   000CFC  EF47  F006         	goto	l9867
  3114   000D00  0A1E               	xorlw	30	; case 17
  3115   000D02  B4D8               	btfsc	status,2,c
  3116   000D04  EF0F  F006         	goto	l9815
  3117   000D08  0A03               	xorlw	3	; case 18
  3118   000D0A  B4D8               	btfsc	status,2,c
  3119   000D0C  EF20  F006         	goto	l9825
  3120   000D10  EFAF  F006         	goto	l1184
  3121   000D14                     l9887:
  3122   000D14  5048               	movf	_SYSTEM_STATE_FLG^0,w,c
  3123   000D16  6E63               	movwf	??_ActionButtons^0,c
  3124   000D18  6A64               	clrf	(??_ActionButtons+1)^0,c
  3125                           
  3126                           ; Switch on 2 bytes has been partitioned into a top level switch of size 1, and 1 sub-sw
      +                          itches
  3127                           ; Switch size 1, requested type "simple"
  3128                           ; Number of cases is 1, Range of values is 0 to 0
  3129                           ; switch strategies available:
  3130                           ; Name         Instructions Cycles
  3131                           ; simple_byte            4     3 (average)
  3132                           ;	Chosen strategy is simple_byte
  3133   000D1A  5064               	movf	(??_ActionButtons+1)^0,w,c
  3134   000D1C  0A00               	xorlw	0	; case 0
  3135   000D1E  B4D8               	btfsc	status,2,c
  3136   000D20  EF94  F006         	goto	l10645
  3137   000D24  EFAF  F006         	goto	l1184
  3138   000D28                     l10645:
  3139                           
  3140                           ; Switch size 1, requested type "simple"
  3141                           ; Number of cases is 6, Range of values is 100 to 203
  3142                           ; switch strategies available:
  3143                           ; Name         Instructions Cycles
  3144                           ; simple_byte           19    10 (average)
  3145                           ;	Chosen strategy is simple_byte
  3146   000D28  5063               	movf	??_ActionButtons^0,w,c
  3147   000D2A  0A64               	xorlw	100	; case 100
  3148   000D2C  B4D8               	btfsc	status,2,c
  3149   000D2E  EFCB  F004         	goto	l9671
  3150   000D32  0A01               	xorlw	1	; case 101
  3151   000D34  B4D8               	btfsc	status,2,c
  3152   000D36  EFAF  F006         	goto	l1184
  3153   000D3A  0AAD               	xorlw	173	; case 200
  3154   000D3C  B4D8               	btfsc	status,2,c
  3155   000D3E  EF3C  F005         	goto	l9715
  3156   000D42  0A01               	xorlw	1	; case 201
  3157   000D44  B4D8               	btfsc	status,2,c
  3158   000D46  EF55  F005         	goto	l9717
  3159   000D4A  0A03               	xorlw	3	; case 202
  3160   000D4C  B4D8               	btfsc	status,2,c
  3161   000D4E  EF65  F006         	goto	l9883
  3162   000D52  0A01               	xorlw	1	; case 203
  3163   000D54  B4D8               	btfsc	status,2,c
  3164   000D56  EFD2  F005         	goto	l9777
  3165   000D5A  EFAF  F006         	goto	l1184
  3166   000D5E                     l1184:
  3167   000D5E  0012               	return		;funcret
  3168   000D60                     __end_of_ActionButtons:
  3169                           	callstack 0
  3170                           
  3171 ;; *************** function _UpDownTransfer *****************
  3172 ;; Defined at:
  3173 ;;		line 337 in file "Buttons.c"
  3174 ;; Parameters:    Size  Location     Type
  3175 ;;		None
  3176 ;; Auto vars:     Size  Location     Type
  3177 ;;		None
  3178 ;; Return value:  Size  Location     Type
  3179 ;;                  1    wreg      void 
  3180 ;; Registers used:
  3181 ;;		wreg, status,2, status,0, cstack
  3182 ;; Tracked objects:
  3183 ;;		On entry : 0/0
  3184 ;;		On exit  : 0/0
  3185 ;;		Unchanged: 0/0
  3186 ;; Data sizes:     COMRAM   BANK0   BANK1   BANK2   BANK3   BANK4   BANK5
  3187 ;;      Params:         0       0       0       0       0       0       0
  3188 ;;      Locals:         0       0       0       0       0       0       0
  3189 ;;      Temps:          0       0       0       0       0       0       0
  3190 ;;      Totals:         0       0       0       0       0       0       0
  3191 ;;Total ram usage:        0 bytes
  3192 ;; Hardware stack levels used: 1
  3193 ;; Hardware stack levels required when called: 6
  3194 ;; This function calls:
  3195 ;;		_UpdateSetValue
  3196 ;; This function is called by:
  3197 ;;		_ActionButtons
  3198 ;; This function uses a non-reentrant model
  3199 ;;
  3200                           
  3201                           	psect	text3
  3202   0027E6                     __ptext3:
  3203                           	callstack 0
  3204   0027E6                     _UpDownTransfer:
  3205                           	callstack 22
  3206   0027E6                     
  3207                           ;Buttons.c: 338:     if( counter_direction_flg == 1 ) {
  3208   0027E6  0437               	decf	_counter_direction_flg^0,w,c
  3209   0027E8  A4D8               	btfss	status,2,c
  3210   0027EA  EFF9  F013         	goto	u7021
  3211   0027EE  EFFB  F013         	goto	u7020
  3212   0027F2                     u7021:
  3213   0027F2  EF05  F014         	goto	l9459
  3214   0027F6                     u7020:
  3215   0027F6                     
  3216                           ;Buttons.c: 339:         counter_direction_flg = 0;
  3217   0027F6  0E00               	movlw	0
  3218   0027F8  6E37               	movwf	_counter_direction_flg^0,c
  3219   0027FA                     
  3220                           ;Buttons.c: 340:         counter_down_hour = counter_up_hour;
  3221   0027FA  C03B  F041         	movff	_counter_up_hour,_counter_down_hour
  3222   0027FE                     
  3223                           ;Buttons.c: 341:         counter_down_minute = counter_up_minute;
  3224   0027FE  C03A  F040         	movff	_counter_up_minute,_counter_down_minute
  3225   002802                     
  3226                           ;Buttons.c: 342:         counter_down_second = counter_up_second;
  3227   002802  C039  F03F         	movff	_counter_up_second,_counter_down_second
  3228                           
  3229                           ;Buttons.c: 343:     }
  3230   002806  EF0D  F014         	goto	l9467
  3231   00280A                     l9459:
  3232                           
  3233                           ;Buttons.c: 345:         counter_direction_flg = 1;
  3234   00280A  0E01               	movlw	1
  3235   00280C  6E37               	movwf	_counter_direction_flg^0,c
  3236   00280E                     
  3237                           ;Buttons.c: 346:         counter_up_hour = counter_down_hour;
  3238   00280E  C041  F03B         	movff	_counter_down_hour,_counter_up_hour
  3239   002812                     
  3240                           ;Buttons.c: 347:         counter_up_minute = counter_down_minute;
  3241   002812  C040  F03A         	movff	_counter_down_minute,_counter_up_minute
  3242   002816                     
  3243                           ;Buttons.c: 348:         counter_up_second = counter_down_second;
  3244   002816  C03F  F039         	movff	_counter_down_second,_counter_up_second
  3245   00281A                     l9467:
  3246                           
  3247                           ;Buttons.c: 350:     UpdateSetValue();
  3248   00281A  EC23  F015         	call	_UpdateSetValue	;wreg free
  3249   00281E  0012               	return		;funcret
  3250   002820                     __end_of_UpDownTransfer:
  3251                           	callstack 0
  3252                           
  3253 ;; *************** function _StopCounter *****************
  3254 ;; Defined at:
  3255 ;;		line 75 in file "Counter.c"
  3256 ;; Parameters:    Size  Location     Type
  3257 ;;		None
  3258 ;; Auto vars:     Size  Location     Type
  3259 ;;		None
  3260 ;; Return value:  Size  Location     Type
  3261 ;;                  1    wreg      void 
  3262 ;; Registers used:
  3263 ;;		wreg, status,2
  3264 ;; Tracked objects:
  3265 ;;		On entry : 0/0
  3266 ;;		On exit  : 0/0
  3267 ;;		Unchanged: 0/0
  3268 ;; Data sizes:     COMRAM   BANK0   BANK1   BANK2   BANK3   BANK4   BANK5
  3269 ;;      Params:         0       0       0       0       0       0       0
  3270 ;;      Locals:         0       0       0       0       0       0       0
  3271 ;;      Temps:          0       0       0       0       0       0       0
  3272 ;;      Totals:         0       0       0       0       0       0       0
  3273 ;;Total ram usage:        0 bytes
  3274 ;; Hardware stack levels used: 1
  3275 ;; Hardware stack levels required when called: 5
  3276 ;; This function calls:
  3277 ;;		Nothing
  3278 ;; This function is called by:
  3279 ;;		_ActionButtons
  3280 ;; This function uses a non-reentrant model
  3281 ;;
  3282                           
  3283                           	psect	text4
  3284   002A78                     __ptext4:
  3285                           	callstack 0
  3286   002A78                     _StopCounter:
  3287                           	callstack 23
  3288   002A78                     
  3289                           ;Counter.c: 76:     counter_enable_flg = 0;
  3290   002A78  0E00               	movlw	0
  3291   002A7A  6E38               	movwf	_counter_enable_flg^0,c
  3292   002A7C  0012               	return		;funcret
  3293   002A7E                     __end_of_StopCounter:
  3294                           	callstack 0
  3295                           
  3296 ;; *************** function _StartCounter *****************
  3297 ;; Defined at:
  3298 ;;		line 71 in file "Counter.c"
  3299 ;; Parameters:    Size  Location     Type
  3300 ;;		None
  3301 ;; Auto vars:     Size  Location     Type
  3302 ;;		None
  3303 ;; Return value:  Size  Location     Type
  3304 ;;                  1    wreg      void 
  3305 ;; Registers used:
  3306 ;;		wreg, status,2
  3307 ;; Tracked objects:
  3308 ;;		On entry : 0/0
  3309 ;;		On exit  : 0/0
  3310 ;;		Unchanged: 0/0
  3311 ;; Data sizes:     COMRAM   BANK0   BANK1   BANK2   BANK3   BANK4   BANK5
  3312 ;;      Params:         0       0       0       0       0       0       0
  3313 ;;      Locals:         0       0       0       0       0       0       0
  3314 ;;      Temps:          0       0       0       0       0       0       0
  3315 ;;      Totals:         0       0       0       0       0       0       0
  3316 ;;Total ram usage:        0 bytes
  3317 ;; Hardware stack levels used: 1
  3318 ;; Hardware stack levels required when called: 5
  3319 ;; This function calls:
  3320 ;;		Nothing
  3321 ;; This function is called by:
  3322 ;;		_ActionButtons
  3323 ;; This function uses a non-reentrant model
  3324 ;;
  3325                           
  3326                           	psect	text5
  3327   002A7E                     __ptext5:
  3328                           	callstack 0
  3329   002A7E                     _StartCounter:
  3330                           	callstack 23
  3331   002A7E                     
  3332                           ;Counter.c: 72:     counter_enable_flg = 1;
  3333   002A7E  0E01               	movlw	1
  3334   002A80  6E38               	movwf	_counter_enable_flg^0,c
  3335   002A82  0012               	return		;funcret
  3336   002A84                     __end_of_StartCounter:
  3337                           	callstack 0
  3338                           
  3339 ;; *************** function _IncValProcess *****************
  3340 ;; Defined at:
  3341 ;;		line 309 in file "Buttons.c"
  3342 ;; Parameters:    Size  Location     Type
  3343 ;;		None
  3344 ;; Auto vars:     Size  Location     Type
  3345 ;;		None
  3346 ;; Return value:  Size  Location     Type
  3347 ;;                  1    wreg      void 
  3348 ;; Registers used:
  3349 ;;		wreg, status,2, status,0, cstack
  3350 ;; Tracked objects:
  3351 ;;		On entry : 0/0
  3352 ;;		On exit  : 0/0
  3353 ;;		Unchanged: 0/0
  3354 ;; Data sizes:     COMRAM   BANK0   BANK1   BANK2   BANK3   BANK4   BANK5
  3355 ;;      Params:         0       0       0       0       0       0       0
  3356 ;;      Locals:         0       0       0       0       0       0       0
  3357 ;;      Temps:          0       0       0       0       0       0       0
  3358 ;;      Totals:         0       0       0       0       0       0       0
  3359 ;;Total ram usage:        0 bytes
  3360 ;; Hardware stack levels used: 1
  3361 ;; Hardware stack levels required when called: 6
  3362 ;; This function calls:
  3363 ;;		_UpdateSetValue
  3364 ;; This function is called by:
  3365 ;;		_ActionButtons
  3366 ;; This function uses a non-reentrant model
  3367 ;;
  3368                           
  3369                           	psect	text6
  3370   002820                     __ptext6:
  3371                           	callstack 0
  3372   002820                     _IncValProcess:
  3373                           	callstack 22
  3374   002820                     
  3375                           ;Buttons.c: 310:     counter_down_second ++;
  3376   002820  2A3F               	incf	_counter_down_second^0,f,c
  3377   002822                     
  3378                           ;Buttons.c: 311:     if( counter_down_second == 60 ){
  3379   002822  0E3C               	movlw	60
  3380   002824  183F               	xorwf	_counter_down_second^0,w,c
  3381   002826  A4D8               	btfss	status,2,c
  3382   002828  EF18  F014         	goto	u7031
  3383   00282C  EF1A  F014         	goto	u7030
  3384   002830                     u7031:
  3385   002830  EF29  F014         	goto	l9483
  3386   002834                     u7030:
  3387   002834                     
  3388                           ;Buttons.c: 312:         counter_down_second = 0;
  3389   002834  0E00               	movlw	0
  3390   002836  6E3F               	movwf	_counter_down_second^0,c
  3391   002838                     
  3392                           ;Buttons.c: 313:         counter_down_minute ++;
  3393   002838  2A40               	incf	_counter_down_minute^0,f,c
  3394   00283A                     
  3395                           ;Buttons.c: 314:         if(counter_down_minute == 60){
  3396   00283A  0E3C               	movlw	60
  3397   00283C  1840               	xorwf	_counter_down_minute^0,w,c
  3398   00283E  A4D8               	btfss	status,2,c
  3399   002840  EF24  F014         	goto	u7041
  3400   002844  EF26  F014         	goto	u7040
  3401   002848                     u7041:
  3402   002848  EF29  F014         	goto	l9483
  3403   00284C                     u7040:
  3404   00284C                     
  3405                           ;Buttons.c: 315:             counter_down_minute = 0;
  3406   00284C  0E00               	movlw	0
  3407   00284E  6E40               	movwf	_counter_down_minute^0,c
  3408   002850                     
  3409                           ;Buttons.c: 316:             counter_down_hour ++;
  3410   002850  2A41               	incf	_counter_down_hour^0,f,c
  3411   002852                     l9483:
  3412                           
  3413                           ;Buttons.c: 319:     UpdateSetValue();
  3414   002852  EC23  F015         	call	_UpdateSetValue	;wreg free
  3415   002856  0012               	return		;funcret
  3416   002858                     __end_of_IncValProcess:
  3417                           	callstack 0
  3418                           
  3419 ;; *************** function _Ds1307SecondSet *****************
  3420 ;; Defined at:
  3421 ;;		line 134 in file "DS1307.c"
  3422 ;; Parameters:    Size  Location     Type
  3423 ;;  second_data     1    wreg     unsigned char 
  3424 ;; Auto vars:     Size  Location     Type
  3425 ;;  second_data     1   19[COMRAM] unsigned char 
  3426 ;; Return value:  Size  Location     Type
  3427 ;;                  1    wreg      void 
  3428 ;; Registers used:
  3429 ;;		wreg, status,2, cstack
  3430 ;; Tracked objects:
  3431 ;;		On entry : 0/0
  3432 ;;		On exit  : 0/0
  3433 ;;		Unchanged: 0/0
  3434 ;; Data sizes:     COMRAM   BANK0   BANK1   BANK2   BANK3   BANK4   BANK5
  3435 ;;      Params:         0       0       0       0       0       0       0
  3436 ;;      Locals:         1       0       0       0       0       0       0
  3437 ;;      Temps:          0       0       0       0       0       0       0
  3438 ;;      Totals:         1       0       0       0       0       0       0
  3439 ;;Total ram usage:        1 bytes
  3440 ;; Hardware stack levels used: 1
  3441 ;; Hardware stack levels required when called: 8
  3442 ;; This function calls:
  3443 ;;		_I2cStart
  3444 ;;		_I2cStop
  3445 ;;		_I2cWrite
  3446 ;; This function is called by:
  3447 ;;		_ActionButtons
  3448 ;; This function uses a non-reentrant model
  3449 ;;
  3450                           
  3451                           	psect	text7
  3452   00292A                     __ptext7:
  3453                           	callstack 0
  3454   00292A                     _Ds1307SecondSet:
  3455                           	callstack 20
  3456                           
  3457                           ;incstack = 0
  3458                           ;Ds1307SecondSet@second_data stored from wreg
  3459   00292A  6E60               	movwf	Ds1307SecondSet@second_data^0,c
  3460   00292C                     
  3461                           ;DS1307.c: 135:     I2cStart();
  3462   00292C  ECFF  F014         	call	_I2cStart	;wreg free
  3463   002930                     
  3464                           ;DS1307.c: 136:     I2cWrite( (0xD0) );
  3465   002930  0ED0               	movlw	208
  3466   002932  ECB3  F014         	call	_I2cWrite
  3467   002936                     
  3468                           ;DS1307.c: 137:     I2cWrite( 0 );
  3469   002936  0E00               	movlw	0
  3470   002938  ECB3  F014         	call	_I2cWrite
  3471   00293C                     
  3472                           ;DS1307.c: 138:     I2cWrite( second_data );
  3473   00293C  5060               	movf	Ds1307SecondSet@second_data^0,w,c
  3474   00293E  ECB3  F014         	call	_I2cWrite
  3475   002942                     
  3476                           ;DS1307.c: 139:     I2cStop();
  3477   002942  EC11  F015         	call	_I2cStop	;wreg free
  3478   002946  0012               	return		;funcret
  3479   002948                     __end_of_Ds1307SecondSet:
  3480                           	callstack 0
  3481                           
  3482 ;; *************** function _Ds1307MinuteSet *****************
  3483 ;; Defined at:
  3484 ;;		line 126 in file "DS1307.c"
  3485 ;; Parameters:    Size  Location     Type
  3486 ;;  minute_data     1    wreg     unsigned char 
  3487 ;; Auto vars:     Size  Location     Type
  3488 ;;  minute_data     1   19[COMRAM] unsigned char 
  3489 ;; Return value:  Size  Location     Type
  3490 ;;                  1    wreg      void 
  3491 ;; Registers used:
  3492 ;;		wreg, status,2, cstack
  3493 ;; Tracked objects:
  3494 ;;		On entry : 0/0
  3495 ;;		On exit  : 0/0
  3496 ;;		Unchanged: 0/0
  3497 ;; Data sizes:     COMRAM   BANK0   BANK1   BANK2   BANK3   BANK4   BANK5
  3498 ;;      Params:         0       0       0       0       0       0       0
  3499 ;;      Locals:         1       0       0       0       0       0       0
  3500 ;;      Temps:          0       0       0       0       0       0       0
  3501 ;;      Totals:         1       0       0       0       0       0       0
  3502 ;;Total ram usage:        1 bytes
  3503 ;; Hardware stack levels used: 1
  3504 ;; Hardware stack levels required when called: 8
  3505 ;; This function calls:
  3506 ;;		_I2cStart
  3507 ;;		_I2cStop
  3508 ;;		_I2cWrite
  3509 ;; This function is called by:
  3510 ;;		_ActionButtons
  3511 ;; This function uses a non-reentrant model
  3512 ;;
  3513                           
  3514                           	psect	text8
  3515   002948                     __ptext8:
  3516                           	callstack 0
  3517   002948                     _Ds1307MinuteSet:
  3518                           	callstack 20
  3519                           
  3520                           ;incstack = 0
  3521                           ;Ds1307MinuteSet@minute_data stored from wreg
  3522   002948  6E60               	movwf	Ds1307MinuteSet@minute_data^0,c
  3523   00294A                     
  3524                           ;DS1307.c: 127:     I2cStart();
  3525   00294A  ECFF  F014         	call	_I2cStart	;wreg free
  3526   00294E                     
  3527                           ;DS1307.c: 128:     I2cWrite( (0xD0) );
  3528   00294E  0ED0               	movlw	208
  3529   002950  ECB3  F014         	call	_I2cWrite
  3530   002954                     
  3531                           ;DS1307.c: 129:     I2cWrite( 1 );
  3532   002954  0E01               	movlw	1
  3533   002956  ECB3  F014         	call	_I2cWrite
  3534   00295A                     
  3535                           ;DS1307.c: 130:     I2cWrite( minute_data );
  3536   00295A  5060               	movf	Ds1307MinuteSet@minute_data^0,w,c
  3537   00295C  ECB3  F014         	call	_I2cWrite
  3538   002960                     
  3539                           ;DS1307.c: 131:     I2cStop();
  3540   002960  EC11  F015         	call	_I2cStop	;wreg free
  3541   002964  0012               	return		;funcret
  3542   002966                     __end_of_Ds1307MinuteSet:
  3543                           	callstack 0
  3544                           
  3545 ;; *************** function _Ds1307HourSet *****************
  3546 ;; Defined at:
  3547 ;;		line 105 in file "DS1307.c"
  3548 ;; Parameters:    Size  Location     Type
  3549 ;;  hour_data       1    wreg     unsigned char 
  3550 ;; Auto vars:     Size  Location     Type
  3551 ;;  hour_data       1   20[COMRAM] unsigned char 
  3552 ;;  hour_temp       1   21[COMRAM] unsigned char 
  3553 ;; Return value:  Size  Location     Type
  3554 ;;                  1    wreg      void 
  3555 ;; Registers used:
  3556 ;;		wreg, status,2, status,0, cstack
  3557 ;; Tracked objects:
  3558 ;;		On entry : 0/0
  3559 ;;		On exit  : 0/0
  3560 ;;		Unchanged: 0/0
  3561 ;; Data sizes:     COMRAM   BANK0   BANK1   BANK2   BANK3   BANK4   BANK5
  3562 ;;      Params:         0       0       0       0       0       0       0
  3563 ;;      Locals:         2       0       0       0       0       0       0
  3564 ;;      Temps:          1       0       0       0       0       0       0
  3565 ;;      Totals:         3       0       0       0       0       0       0
  3566 ;;Total ram usage:        3 bytes
  3567 ;; Hardware stack levels used: 1
  3568 ;; Hardware stack levels required when called: 8
  3569 ;; This function calls:
  3570 ;;		_I2cStart
  3571 ;;		_I2cStop
  3572 ;;		_I2cWrite
  3573 ;; This function is called by:
  3574 ;;		_ActionButtons
  3575 ;; This function uses a non-reentrant model
  3576 ;;
  3577                           
  3578                           	psect	text9
  3579   002020                     __ptext9:
  3580                           	callstack 0
  3581   002020                     _Ds1307HourSet:
  3582                           	callstack 20
  3583                           
  3584                           ;incstack = 0
  3585                           ;Ds1307HourSet@hour_data stored from wreg
  3586   002020  6E61               	movwf	Ds1307HourSet@hour_data^0,c
  3587   002022                     
  3588                           ;DS1307.c: 106:     unsigned char hour_temp = hour_data;
  3589   002022  C061  F062         	movff	Ds1307HourSet@hour_data,Ds1307HourSet@hour_temp
  3590   002026                     
  3591                           ;DS1307.c: 107:     if( rtc_clock_disp_type == 1 ) {
  3592   002026  044C               	decf	_rtc_clock_disp_type^0,w,c
  3593   002028  A4D8               	btfss	status,2,c
  3594   00202A  EF19  F010         	goto	u6941
  3595   00202E  EF1B  F010         	goto	u6940
  3596   002032                     u6941:
  3597   002032  EF44  F010         	goto	l9399
  3598   002036                     u6940:
  3599   002036                     
  3600                           ;DS1307.c: 108:         if( hour_temp > 0x12 ) hour_temp = hour_temp - 0x12;
  3601   002036  0E12               	movlw	18
  3602   002038  6462               	cpfsgt	Ds1307HourSet@hour_temp^0,c
  3603   00203A  EF21  F010         	goto	u6951
  3604   00203E  EF23  F010         	goto	u6950
  3605   002042                     u6951:
  3606   002042  EF26  F010         	goto	l61
  3607   002046                     u6950:
  3608   002046  5062               	movf	Ds1307HourSet@hour_temp^0,w,c
  3609   002048  0FEE               	addlw	238
  3610   00204A  6E62               	movwf	Ds1307HourSet@hour_temp^0,c
  3611   00204C                     l61:
  3612                           
  3613                           ;DS1307.c: 109:         if( hour_temp % 16 >= 10 ) hour_temp -= 6;
  3614   00204C  C062  F060         	movff	Ds1307HourSet@hour_temp,??_Ds1307HourSet
  3615   002050  0E0F               	movlw	15
  3616   002052  1660               	andwf	??_Ds1307HourSet^0,f,c
  3617   002054  0E09               	movlw	9
  3618   002056  6460               	cpfsgt	??_Ds1307HourSet^0,c
  3619   002058  EF30  F010         	goto	u6961
  3620   00205C  EF32  F010         	goto	u6960
  3621   002060                     u6961:
  3622   002060  EF34  F010         	goto	l62
  3623   002064                     u6960:
  3624   002064  0E06               	movlw	6
  3625   002066  5E62               	subwf	Ds1307HourSet@hour_temp^0,f,c
  3626   002068                     l62:
  3627                           
  3628                           ;DS1307.c: 110:         hour_temp = hour_temp | 0x40;
  3629   002068  5062               	movf	Ds1307HourSet@hour_temp^0,w,c
  3630   00206A  0940               	iorlw	64
  3631   00206C  6E62               	movwf	Ds1307HourSet@hour_temp^0,c
  3632                           
  3633                           ;DS1307.c: 111:         if( rtc_hour_ampm_flg == 1 ) hour_temp = hour_temp | 0x20;
  3634   00206E  044B               	decf	_rtc_hour_ampm_flg^0,w,c
  3635   002070  A4D8               	btfss	status,2,c
  3636   002072  EF3D  F010         	goto	u6971
  3637   002076  EF3F  F010         	goto	u6970
  3638   00207A                     u6971:
  3639   00207A  EF65  F010         	goto	l9407
  3640   00207E                     u6970:
  3641   00207E  5062               	movf	Ds1307HourSet@hour_temp^0,w,c
  3642   002080  0920               	iorlw	32
  3643   002082  6E62               	movwf	Ds1307HourSet@hour_temp^0,c
  3644   002084  EF65  F010         	goto	l9407
  3645   002088                     l9399:
  3646                           
  3647                           ;DS1307.c: 114:         if( rtc_hour_ampm_flg == 1 && hour_temp < 0x12 ) {
  3648   002088  044B               	decf	_rtc_hour_ampm_flg^0,w,c
  3649   00208A  A4D8               	btfss	status,2,c
  3650   00208C  EF4A  F010         	goto	u6981
  3651   002090  EF4C  F010         	goto	u6980
  3652   002094                     u6981:
  3653   002094  EF65  F010         	goto	l9407
  3654   002098                     u6980:
  3655   002098  0E12               	movlw	18
  3656   00209A  6062               	cpfslt	Ds1307HourSet@hour_temp^0,c
  3657   00209C  EF52  F010         	goto	u6991
  3658   0020A0  EF54  F010         	goto	u6990
  3659   0020A4                     u6991:
  3660   0020A4  EF65  F010         	goto	l9407
  3661   0020A8                     u6990:
  3662   0020A8                     
  3663                           ;DS1307.c: 115:             hour_temp = hour_temp + 0x12;
  3664   0020A8  5062               	movf	Ds1307HourSet@hour_temp^0,w,c
  3665   0020AA  0F12               	addlw	18
  3666   0020AC  6E62               	movwf	Ds1307HourSet@hour_temp^0,c
  3667                           
  3668                           ;DS1307.c: 116:             if( hour_temp % 16 >= 10 ) hour_temp += 6;
  3669   0020AE  C062  F060         	movff	Ds1307HourSet@hour_temp,??_Ds1307HourSet
  3670   0020B2  0E0F               	movlw	15
  3671   0020B4  1660               	andwf	??_Ds1307HourSet^0,f,c
  3672   0020B6  0E09               	movlw	9
  3673   0020B8  6460               	cpfsgt	??_Ds1307HourSet^0,c
  3674   0020BA  EF61  F010         	goto	u7001
  3675   0020BE  EF63  F010         	goto	u7000
  3676   0020C2                     u7001:
  3677   0020C2  EF65  F010         	goto	l9407
  3678   0020C6                     u7000:
  3679   0020C6  0E06               	movlw	6
  3680   0020C8  2662               	addwf	Ds1307HourSet@hour_temp^0,f,c
  3681   0020CA                     l9407:
  3682                           
  3683                           ;DS1307.c: 119:     I2cStart();
  3684   0020CA  ECFF  F014         	call	_I2cStart	;wreg free
  3685   0020CE                     
  3686                           ;DS1307.c: 120:     I2cWrite( (0xD0) );
  3687   0020CE  0ED0               	movlw	208
  3688   0020D0  ECB3  F014         	call	_I2cWrite
  3689   0020D4                     
  3690                           ;DS1307.c: 121:     I2cWrite( 2 );
  3691   0020D4  0E02               	movlw	2
  3692   0020D6  ECB3  F014         	call	_I2cWrite
  3693   0020DA                     
  3694                           ;DS1307.c: 122:     I2cWrite( hour_temp );
  3695   0020DA  5062               	movf	Ds1307HourSet@hour_temp^0,w,c
  3696   0020DC  ECB3  F014         	call	_I2cWrite
  3697   0020E0                     
  3698                           ;DS1307.c: 123:     I2cStop();
  3699   0020E0  EC11  F015         	call	_I2cStop	;wreg free
  3700   0020E4  0012               	return		;funcret
  3701   0020E6                     __end_of_Ds1307HourSet:
  3702                           	callstack 0
  3703                           
  3704 ;; *************** function _DecValProcess *****************
  3705 ;; Defined at:
  3706 ;;		line 322 in file "Buttons.c"
  3707 ;; Parameters:    Size  Location     Type
  3708 ;;		None
  3709 ;; Auto vars:     Size  Location     Type
  3710 ;;		None
  3711 ;; Return value:  Size  Location     Type
  3712 ;;                  1    wreg      void 
  3713 ;; Registers used:
  3714 ;;		wreg, status,2, status,0, cstack
  3715 ;; Tracked objects:
  3716 ;;		On entry : 0/0
  3717 ;;		On exit  : 0/0
  3718 ;;		Unchanged: 0/0
  3719 ;; Data sizes:     COMRAM   BANK0   BANK1   BANK2   BANK3   BANK4   BANK5
  3720 ;;      Params:         0       0       0       0       0       0       0
  3721 ;;      Locals:         0       0       0       0       0       0       0
  3722 ;;      Temps:          2       0       0       0       0       0       0
  3723 ;;      Totals:         2       0       0       0       0       0       0
  3724 ;;Total ram usage:        2 bytes
  3725 ;; Hardware stack levels used: 1
  3726 ;; Hardware stack levels required when called: 6
  3727 ;; This function calls:
  3728 ;;		_UpdateSetValue
  3729 ;; This function is called by:
  3730 ;;		_ActionButtons
  3731 ;; This function uses a non-reentrant model
  3732 ;;
  3733                           
  3734                           	psect	text10
  3735   001F58                     __ptext10:
  3736                           	callstack 0
  3737   001F58                     _DecValProcess:
  3738                           	callstack 22
  3739   001F58                     
  3740                           ;Buttons.c: 323:     counter_down_second --;
  3741   001F58  063F               	decf	_counter_down_second^0,f,c
  3742   001F5A                     
  3743                           ;Buttons.c: 324:     if( counter_down_second < 0 && counter_down_hour + counter_down_min
      +                          ute) {
  3744   001F5A  BE3F               	btfsc	_counter_down_second^0,7,c
  3745   001F5C  EFB4  F00F         	goto	u7050
  3746   001F60  EFB2  F00F         	goto	u7051
  3747   001F64                     u7051:
  3748   001F64  EFF0  F00F         	goto	l9509
  3749   001F68                     u7050:
  3750   001F68  5041               	movf	_counter_down_hour^0,w,c
  3751   001F6A  2440               	addwf	_counter_down_minute^0,w,c
  3752   001F6C  6E5F               	movwf	??_DecValProcess^0,c
  3753   001F6E  6AE8               	clrf	wreg,c
  3754   001F70  B0D8               	btfsc	status,0,c
  3755   001F72  2AE8               	incf	wreg,f,c
  3756   001F74  BE41               	btfsc	_counter_down_hour^0,7,c
  3757   001F76  06E8               	decf	wreg,f,c
  3758   001F78  BE40               	btfsc	_counter_down_minute^0,7,c
  3759   001F7A  06E8               	decf	wreg,f,c
  3760   001F7C  6E60               	movwf	(??_DecValProcess+1)^0,c
  3761   001F7E  505F               	movf	??_DecValProcess^0,w,c
  3762   001F80  1060               	iorwf	(??_DecValProcess+1)^0,w,c
  3763   001F82  B4D8               	btfsc	status,2,c
  3764   001F84  EFC6  F00F         	goto	u7061
  3765   001F88  EFC8  F00F         	goto	u7060
  3766   001F8C                     u7061:
  3767   001F8C  EFF0  F00F         	goto	l9509
  3768   001F90                     u7060:
  3769   001F90                     
  3770                           ;Buttons.c: 325:         counter_down_second = 59;
  3771   001F90  0E3B               	movlw	59
  3772   001F92  6E3F               	movwf	_counter_down_second^0,c
  3773   001F94                     
  3774                           ;Buttons.c: 326:         counter_down_minute --;
  3775   001F94  0640               	decf	_counter_down_minute^0,f,c
  3776   001F96                     
  3777                           ;Buttons.c: 327:         if( counter_down_minute < 0 && counter_down_hour ){
  3778   001F96  BE40               	btfsc	_counter_down_minute^0,7,c
  3779   001F98  EFD2  F00F         	goto	u7070
  3780   001F9C  EFD0  F00F         	goto	u7071
  3781   001FA0                     u7071:
  3782   001FA0  EFDF  F00F         	goto	l9503
  3783   001FA4                     u7070:
  3784   001FA4  5041               	movf	_counter_down_hour^0,w,c
  3785   001FA6  B4D8               	btfsc	status,2,c
  3786   001FA8  EFD8  F00F         	goto	u7081
  3787   001FAC  EFDA  F00F         	goto	u7080
  3788   001FB0                     u7081:
  3789   001FB0  EFDF  F00F         	goto	l9503
  3790   001FB4                     u7080:
  3791   001FB4                     
  3792                           ;Buttons.c: 328:             counter_down_minute = 59;
  3793   001FB4  0E3B               	movlw	59
  3794   001FB6  6E40               	movwf	_counter_down_minute^0,c
  3795   001FB8                     
  3796                           ;Buttons.c: 329:             counter_down_hour --;
  3797   001FB8  0641               	decf	_counter_down_hour^0,f,c
  3798                           
  3799                           ;Buttons.c: 330:         }
  3800   001FBA  EFF0  F00F         	goto	l9509
  3801   001FBE                     l9503:
  3802   001FBE  BE40               	btfsc	_counter_down_minute^0,7,c
  3803   001FC0  EFE6  F00F         	goto	u7090
  3804   001FC4  EFE4  F00F         	goto	u7091
  3805   001FC8                     u7091:
  3806   001FC8  EFF0  F00F         	goto	l9509
  3807   001FCC                     u7090:
  3808   001FCC  5041               	movf	_counter_down_hour^0,w,c
  3809   001FCE  A4D8               	btfss	status,2,c
  3810   001FD0  EFEC  F00F         	goto	u7101
  3811   001FD4  EFEE  F00F         	goto	u7100
  3812   001FD8                     u7101:
  3813   001FD8  EFF0  F00F         	goto	l9509
  3814   001FDC                     u7100:
  3815   001FDC  0E00               	movlw	0
  3816   001FDE  6E40               	movwf	_counter_down_minute^0,c
  3817   001FE0                     l9509:
  3818                           
  3819                           ;Buttons.c: 333:     if( counter_down_second < 0 && !(counter_down_hour + counter_down_m
      +                          inute) ) counter_down_second = 0;
  3820   001FE0  BE3F               	btfsc	_counter_down_second^0,7,c
  3821   001FE2  EFF7  F00F         	goto	u7110
  3822   001FE6  EFF5  F00F         	goto	u7111
  3823   001FEA                     u7111:
  3824   001FEA  EF0D  F010         	goto	l9515
  3825   001FEE                     u7110:
  3826   001FEE  5041               	movf	_counter_down_hour^0,w,c
  3827   001FF0  2440               	addwf	_counter_down_minute^0,w,c
  3828   001FF2  6E5F               	movwf	??_DecValProcess^0,c
  3829   001FF4  6AE8               	clrf	wreg,c
  3830   001FF6  B0D8               	btfsc	status,0,c
  3831   001FF8  2AE8               	incf	wreg,f,c
  3832   001FFA  BE41               	btfsc	_counter_down_hour^0,7,c
  3833   001FFC  06E8               	decf	wreg,f,c
  3834   001FFE  BE40               	btfsc	_counter_down_minute^0,7,c
  3835   002000  06E8               	decf	wreg,f,c
  3836   002002  6E60               	movwf	(??_DecValProcess+1)^0,c
  3837   002004  505F               	movf	??_DecValProcess^0,w,c
  3838   002006  1060               	iorwf	(??_DecValProcess+1)^0,w,c
  3839   002008  A4D8               	btfss	status,2,c
  3840   00200A  EF09  F010         	goto	u7121
  3841   00200E  EF0B  F010         	goto	u7120
  3842   002012                     u7121:
  3843   002012  EF0D  F010         	goto	l9515
  3844   002016                     u7120:
  3845   002016  0E00               	movlw	0
  3846   002018  6E3F               	movwf	_counter_down_second^0,c
  3847   00201A                     l9515:
  3848                           
  3849                           ;Buttons.c: 334:     UpdateSetValue();
  3850   00201A  EC23  F015         	call	_UpdateSetValue	;wreg free
  3851   00201E  0012               	return		;funcret
  3852   002020                     __end_of_DecValProcess:
  3853                           	callstack 0
  3854                           
  3855 ;; *************** function _UpdateSetValue *****************
  3856 ;; Defined at:
  3857 ;;		line 353 in file "Buttons.c"
  3858 ;; Parameters:    Size  Location     Type
  3859 ;;		None
  3860 ;; Auto vars:     Size  Location     Type
  3861 ;;		None
  3862 ;; Return value:  Size  Location     Type
  3863 ;;                  1    wreg      void 
  3864 ;; Registers used:
  3865 ;;		None
  3866 ;; Tracked objects:
  3867 ;;		On entry : 0/0
  3868 ;;		On exit  : 0/0
  3869 ;;		Unchanged: 0/0
  3870 ;; Data sizes:     COMRAM   BANK0   BANK1   BANK2   BANK3   BANK4   BANK5
  3871 ;;      Params:         0       0       0       0       0       0       0
  3872 ;;      Locals:         0       0       0       0       0       0       0
  3873 ;;      Temps:          0       0       0       0       0       0       0
  3874 ;;      Totals:         0       0       0       0       0       0       0
  3875 ;;Total ram usage:        0 bytes
  3876 ;; Hardware stack levels used: 1
  3877 ;; Hardware stack levels required when called: 5
  3878 ;; This function calls:
  3879 ;;		Nothing
  3880 ;; This function is called by:
  3881 ;;		_IncValProcess
  3882 ;;		_DecValProcess
  3883 ;;		_UpDownTransfer
  3884 ;; This function uses a non-reentrant model
  3885 ;;
  3886                           
  3887                           	psect	text11
  3888   002A46                     __ptext11:
  3889                           	callstack 0
  3890   002A46                     _UpdateSetValue:
  3891                           	callstack 22
  3892   002A46                     
  3893                           ;Buttons.c: 354:     counter_down_set_hour = counter_down_hour;
  3894   002A46  C041  F03E         	movff	_counter_down_hour,_counter_down_set_hour
  3895                           
  3896                           ;Buttons.c: 355:     counter_down_set_minute = counter_down_minute;
  3897   002A4A  C040  F03D         	movff	_counter_down_minute,_counter_down_set_minute
  3898                           
  3899                           ;Buttons.c: 356:     counter_down_set_second = counter_down_second;
  3900   002A4E  C03F  F03C         	movff	_counter_down_second,_counter_down_set_second
  3901   002A52  0012               	return		;funcret
  3902   002A54                     __end_of_UpdateSetValue:
  3903                           	callstack 0
  3904                           
  3905 ;; *************** function _ReadCounter *****************
  3906 ;; Defined at:
  3907 ;;		line 36 in file "Counter.c"
  3908 ;; Parameters:    Size  Location     Type
  3909 ;;		None
  3910 ;; Auto vars:     Size  Location     Type
  3911 ;;  counter_data    6    4[BANK1 ] unsigned char [6]
  3912 ;; Return value:  Size  Location     Type
  3913 ;;                  2    0[BANK0 ] PTR unsigned char 
  3914 ;; Registers used:
  3915 ;;		wreg, status,2, status,0, cstack
  3916 ;; Tracked objects:
  3917 ;;		On entry : 0/0
  3918 ;;		On exit  : 0/0
  3919 ;;		Unchanged: 0/0
  3920 ;; Data sizes:     COMRAM   BANK0   BANK1   BANK2   BANK3   BANK4   BANK5
  3921 ;;      Params:         0       2       0       0       0       0       0
  3922 ;;      Locals:         0       0       6       0       0       0       0
  3923 ;;      Temps:          0       0       0       0       0       0       0
  3924 ;;      Totals:         0       2       6       0       0       0       0
  3925 ;;Total ram usage:        8 bytes
  3926 ;; Hardware stack levels used: 1
  3927 ;; Hardware stack levels required when called: 6
  3928 ;; This function calls:
  3929 ;;		___awdiv
  3930 ;;		___awmod
  3931 ;; This function is called by:
  3932 ;;		_main
  3933 ;; This function uses a non-reentrant model
  3934 ;;
  3935                           
  3936                           	psect	text12
  3937   0017BA                     __ptext12:
  3938                           	callstack 0
  3939   0017BA                     _ReadCounter:
  3940                           	callstack 24
  3941   0017BA                     
  3942                           ;Counter.c: 38:     unsigned char counter_datas[ 6 ];;Counter.c: 40:     if( counter_dir
      +                          ection_flg == 1 ) {
  3943   0017BA  0437               	decf	_counter_direction_flg^0,w,c
  3944   0017BC  A4D8               	btfss	status,2,c
  3945   0017BE  EFE3  F00B         	goto	u7941
  3946   0017C2  EFE5  F00B         	goto	u7940
  3947   0017C6                     u7941:
  3948   0017C6  EF2F  F00C         	goto	l10139
  3949   0017CA                     u7940:
  3950   0017CA                     
  3951                           ;Counter.c: 41:         counter_datas[ 0 + 1 ] = counter_up_hour % 10;
  3952   0017CA  C03B  F05F         	movff	_counter_up_hour,___awmod@dividend
  3953   0017CE  6A60               	clrf	(___awmod@dividend+1)^0,c
  3954   0017D0  0E00               	movlw	0
  3955   0017D2  6E62               	movwf	(___awmod@divisor+1)^0,c
  3956   0017D4  0E0A               	movlw	10
  3957   0017D6  6E61               	movwf	___awmod@divisor^0,c
  3958   0017D8  EC36  F011         	call	___awmod	;wreg free
  3959   0017DC  505F               	movf	?___awmod^0,w,c
  3960   0017DE  0101               	movlb	1	; () banked
  3961   0017E0  6F2D               	movwf	(ReadCounter@counter_datas+1)& (0+255),b
  3962                           
  3963                           ;Counter.c: 42:         counter_datas[ 0 ] = counter_up_hour / 10;
  3964   0017E2  C03B  F05F         	movff	_counter_up_hour,___awdiv@dividend
  3965   0017E6  6A60               	clrf	(___awdiv@dividend+1)^0,c
  3966   0017E8  0E00               	movlw	0
  3967   0017EA  6E62               	movwf	(___awdiv@divisor+1)^0,c
  3968   0017EC  0E0A               	movlw	10
  3969   0017EE  6E61               	movwf	___awdiv@divisor^0,c
  3970   0017F0  EC73  F010         	call	___awdiv	;wreg free
  3971   0017F4  505F               	movf	?___awdiv^0,w,c
  3972   0017F6  0101               	movlb	1	; () banked
  3973   0017F8  6F2C               	movwf	ReadCounter@counter_datas& (0+255),b
  3974                           
  3975                           ;Counter.c: 43:         counter_datas[ 2 + 1 ] = counter_up_minute % 10;
  3976   0017FA  C03A  F05F         	movff	_counter_up_minute,___awmod@dividend
  3977   0017FE  6A60               	clrf	(___awmod@dividend+1)^0,c
  3978   001800  0E00               	movlw	0
  3979   001802  6E62               	movwf	(___awmod@divisor+1)^0,c
  3980   001804  0E0A               	movlw	10
  3981   001806  6E61               	movwf	___awmod@divisor^0,c
  3982   001808  EC36  F011         	call	___awmod	;wreg free
  3983   00180C  505F               	movf	?___awmod^0,w,c
  3984   00180E  0101               	movlb	1	; () banked
  3985   001810  6F2F               	movwf	(ReadCounter@counter_datas+3)& (0+255),b
  3986                           
  3987                           ;Counter.c: 44:         counter_datas[ 2 ] = counter_up_minute / 10;
  3988   001812  C03A  F05F         	movff	_counter_up_minute,___awdiv@dividend
  3989   001816  6A60               	clrf	(___awdiv@dividend+1)^0,c
  3990   001818  0E00               	movlw	0
  3991   00181A  6E62               	movwf	(___awdiv@divisor+1)^0,c
  3992   00181C  0E0A               	movlw	10
  3993   00181E  6E61               	movwf	___awdiv@divisor^0,c
  3994   001820  EC73  F010         	call	___awdiv	;wreg free
  3995   001824  505F               	movf	?___awdiv^0,w,c
  3996   001826  0101               	movlb	1	; () banked
  3997   001828  6F2E               	movwf	(ReadCounter@counter_datas+2)& (0+255),b
  3998                           
  3999                           ;Counter.c: 45:         counter_datas[ 4 + 1 ] = counter_up_second % 10;
  4000   00182A  C039  F05F         	movff	_counter_up_second,___awmod@dividend
  4001   00182E  6A60               	clrf	(___awmod@dividend+1)^0,c
  4002   001830  0E00               	movlw	0
  4003   001832  6E62               	movwf	(___awmod@divisor+1)^0,c
  4004   001834  0E0A               	movlw	10
  4005   001836  6E61               	movwf	___awmod@divisor^0,c
  4006   001838  EC36  F011         	call	___awmod	;wreg free
  4007   00183C  505F               	movf	?___awmod^0,w,c
  4008   00183E  0101               	movlb	1	; () banked
  4009   001840  6F31               	movwf	(ReadCounter@counter_datas+5)& (0+255),b
  4010                           
  4011                           ;Counter.c: 46:         counter_datas[ 4 ] = counter_up_second / 10;
  4012   001842  C039  F05F         	movff	_counter_up_second,___awdiv@dividend
  4013   001846  6A60               	clrf	(___awdiv@dividend+1)^0,c
  4014   001848  0E00               	movlw	0
  4015   00184A  6E62               	movwf	(___awdiv@divisor+1)^0,c
  4016   00184C  0E0A               	movlw	10
  4017   00184E  6E61               	movwf	___awdiv@divisor^0,c
  4018   001850  EC73  F010         	call	___awdiv	;wreg free
  4019   001854  505F               	movf	?___awdiv^0,w,c
  4020   001856  0101               	movlb	1	; () banked
  4021   001858  6F30               	movwf	(ReadCounter@counter_datas+4)& (0+255),b
  4022                           
  4023                           ;Counter.c: 47:     }
  4024   00185A  EF8B  F00C         	goto	l10143
  4025   00185E                     l10139:
  4026   00185E  5037               	movf	_counter_direction_flg^0,w,c
  4027   001860  A4D8               	btfss	status,2,c
  4028   001862  EF35  F00C         	goto	u7951
  4029   001866  EF37  F00C         	goto	u7950
  4030   00186A                     u7951:
  4031   00186A  EF8B  F00C         	goto	l10143
  4032   00186E                     u7950:
  4033   00186E                     
  4034                           ;Counter.c: 50:         counter_datas[ 0 + 1 ] = counter_down_hour % 10;
  4035   00186E  5041               	movf	_counter_down_hour^0,w,c
  4036   001870  6E5F               	movwf	___awmod@dividend^0,c
  4037   001872  6A60               	clrf	(___awmod@dividend+1)^0,c
  4038   001874  BE5F               	btfsc	___awmod@dividend^0,7,c
  4039   001876  0660               	decf	(___awmod@dividend+1)^0,f,c
  4040   001878  0E00               	movlw	0
  4041   00187A  6E62               	movwf	(___awmod@divisor+1)^0,c
  4042   00187C  0E0A               	movlw	10
  4043   00187E  6E61               	movwf	___awmod@divisor^0,c
  4044   001880  EC36  F011         	call	___awmod	;wreg free
  4045   001884  505F               	movf	?___awmod^0,w,c
  4046   001886  0101               	movlb	1	; () banked
  4047   001888  6F2D               	movwf	(ReadCounter@counter_datas+1)& (0+255),b
  4048                           
  4049                           ;Counter.c: 51:         counter_datas[ 0 ] = counter_down_hour / 10;
  4050   00188A  5041               	movf	_counter_down_hour^0,w,c
  4051   00188C  6E5F               	movwf	___awdiv@dividend^0,c
  4052   00188E  6A60               	clrf	(___awdiv@dividend+1)^0,c
  4053   001890  BE5F               	btfsc	___awdiv@dividend^0,7,c
  4054   001892  0660               	decf	(___awdiv@dividend+1)^0,f,c
  4055   001894  0E00               	movlw	0
  4056   001896  6E62               	movwf	(___awdiv@divisor+1)^0,c
  4057   001898  0E0A               	movlw	10
  4058   00189A  6E61               	movwf	___awdiv@divisor^0,c
  4059   00189C  EC73  F010         	call	___awdiv	;wreg free
  4060   0018A0  505F               	movf	?___awdiv^0,w,c
  4061   0018A2  0101               	movlb	1	; () banked
  4062   0018A4  6F2C               	movwf	ReadCounter@counter_datas& (0+255),b
  4063                           
  4064                           ;Counter.c: 52:         counter_datas[ 2 + 1 ] = counter_down_minute % 10;
  4065   0018A6  5040               	movf	_counter_down_minute^0,w,c
  4066   0018A8  6E5F               	movwf	___awmod@dividend^0,c
  4067   0018AA  6A60               	clrf	(___awmod@dividend+1)^0,c
  4068   0018AC  BE5F               	btfsc	___awmod@dividend^0,7,c
  4069   0018AE  0660               	decf	(___awmod@dividend+1)^0,f,c
  4070   0018B0  0E00               	movlw	0
  4071   0018B2  6E62               	movwf	(___awmod@divisor+1)^0,c
  4072   0018B4  0E0A               	movlw	10
  4073   0018B6  6E61               	movwf	___awmod@divisor^0,c
  4074   0018B8  EC36  F011         	call	___awmod	;wreg free
  4075   0018BC  505F               	movf	?___awmod^0,w,c
  4076   0018BE  0101               	movlb	1	; () banked
  4077   0018C0  6F2F               	movwf	(ReadCounter@counter_datas+3)& (0+255),b
  4078                           
  4079                           ;Counter.c: 53:         counter_datas[ 2 ] = counter_down_minute / 10;
  4080   0018C2  5040               	movf	_counter_down_minute^0,w,c
  4081   0018C4  6E5F               	movwf	___awdiv@dividend^0,c
  4082   0018C6  6A60               	clrf	(___awdiv@dividend+1)^0,c
  4083   0018C8  BE5F               	btfsc	___awdiv@dividend^0,7,c
  4084   0018CA  0660               	decf	(___awdiv@dividend+1)^0,f,c
  4085   0018CC  0E00               	movlw	0
  4086   0018CE  6E62               	movwf	(___awdiv@divisor+1)^0,c
  4087   0018D0  0E0A               	movlw	10
  4088   0018D2  6E61               	movwf	___awdiv@divisor^0,c
  4089   0018D4  EC73  F010         	call	___awdiv	;wreg free
  4090   0018D8  505F               	movf	?___awdiv^0,w,c
  4091   0018DA  0101               	movlb	1	; () banked
  4092   0018DC  6F2E               	movwf	(ReadCounter@counter_datas+2)& (0+255),b
  4093                           
  4094                           ;Counter.c: 54:         counter_datas[ 4 + 1 ] = counter_down_second % 10;
  4095   0018DE  503F               	movf	_counter_down_second^0,w,c
  4096   0018E0  6E5F               	movwf	___awmod@dividend^0,c
  4097   0018E2  6A60               	clrf	(___awmod@dividend+1)^0,c
  4098   0018E4  BE5F               	btfsc	___awmod@dividend^0,7,c
  4099   0018E6  0660               	decf	(___awmod@dividend+1)^0,f,c
  4100   0018E8  0E00               	movlw	0
  4101   0018EA  6E62               	movwf	(___awmod@divisor+1)^0,c
  4102   0018EC  0E0A               	movlw	10
  4103   0018EE  6E61               	movwf	___awmod@divisor^0,c
  4104   0018F0  EC36  F011         	call	___awmod	;wreg free
  4105   0018F4  505F               	movf	?___awmod^0,w,c
  4106   0018F6  0101               	movlb	1	; () banked
  4107   0018F8  6F31               	movwf	(ReadCounter@counter_datas+5)& (0+255),b
  4108                           
  4109                           ;Counter.c: 55:         counter_datas[ 4 ] = counter_down_second / 10;
  4110   0018FA  503F               	movf	_counter_down_second^0,w,c
  4111   0018FC  6E5F               	movwf	___awdiv@dividend^0,c
  4112   0018FE  6A60               	clrf	(___awdiv@dividend+1)^0,c
  4113   001900  BE5F               	btfsc	___awdiv@dividend^0,7,c
  4114   001902  0660               	decf	(___awdiv@dividend+1)^0,f,c
  4115   001904  0E00               	movlw	0
  4116   001906  6E62               	movwf	(___awdiv@divisor+1)^0,c
  4117   001908  0E0A               	movlw	10
  4118   00190A  6E61               	movwf	___awdiv@divisor^0,c
  4119   00190C  EC73  F010         	call	___awdiv	;wreg free
  4120   001910  505F               	movf	?___awdiv^0,w,c
  4121   001912  0101               	movlb	1	; () banked
  4122   001914  6F30               	movwf	(ReadCounter@counter_datas+4)& (0+255),b
  4123   001916                     l10143:
  4124                           
  4125                           ;Counter.c: 58:     return counter_datas;
  4126   001916  0E2C               	movlw	low ReadCounter@counter_datas
  4127   001918  0100               	movlb	0	; () banked
  4128   00191A  6FFE               	movwf	?_ReadCounter& (0+255),b
  4129   00191C  0E01               	movlw	high ReadCounter@counter_datas
  4130   00191E  6FFF               	movwf	(?_ReadCounter+1)& (0+255),b
  4131   001920                     
  4132                           ; BSR set to: 0
  4133   001920  0012               	return		;funcret
  4134   001922                     __end_of_ReadCounter:
  4135                           	callstack 0
  4136                           
  4137 ;; *************** function ___awmod *****************
  4138 ;; Defined at:
  4139 ;;		line 7 in file "C:\Program Files\Microchip\xc8\v2.41\pic\sources\c99\common\awmod.c"
  4140 ;; Parameters:    Size  Location     Type
  4141 ;;  dividend        2   18[COMRAM] int 
  4142 ;;  divisor         2   20[COMRAM] int 
  4143 ;; Auto vars:     Size  Location     Type
  4144 ;;  sign            1   23[COMRAM] unsigned char 
  4145 ;;  counter         1   22[COMRAM] unsigned char 
  4146 ;; Return value:  Size  Location     Type
  4147 ;;                  2   18[COMRAM] int 
  4148 ;; Registers used:
  4149 ;;		wreg, status,2, status,0
  4150 ;; Tracked objects:
  4151 ;;		On entry : 0/0
  4152 ;;		On exit  : 0/0
  4153 ;;		Unchanged: 0/0
  4154 ;; Data sizes:     COMRAM   BANK0   BANK1   BANK2   BANK3   BANK4   BANK5
  4155 ;;      Params:         4       0       0       0       0       0       0
  4156 ;;      Locals:         2       0       0       0       0       0       0
  4157 ;;      Temps:          0       0       0       0       0       0       0
  4158 ;;      Totals:         6       0       0       0       0       0       0
  4159 ;;Total ram usage:        6 bytes
  4160 ;; Hardware stack levels used: 1
  4161 ;; Hardware stack levels required when called: 5
  4162 ;; This function calls:
  4163 ;;		Nothing
  4164 ;; This function is called by:
  4165 ;;		_ReadCounter
  4166 ;; This function uses a non-reentrant model
  4167 ;;
  4168                           
  4169                           	psect	text13
  4170   00226C                     __ptext13:
  4171                           	callstack 0
  4172   00226C                     ___awmod:
  4173                           	callstack 24
  4174   00226C  0E00               	movlw	0
  4175   00226E  6E64               	movwf	___awmod@sign^0,c
  4176   002270  BE60               	btfsc	(___awmod@dividend+1)^0,7,c
  4177   002272  EF3F  F011         	goto	u7630
  4178   002276  EF3D  F011         	goto	u7631
  4179   00227A                     u7631:
  4180   00227A  EF45  F011         	goto	l9965
  4181   00227E                     u7630:
  4182   00227E  6C5F               	negf	___awmod@dividend^0,c
  4183   002280  1E60               	comf	(___awmod@dividend+1)^0,f,c
  4184   002282  B0D8               	btfsc	status,0,c
  4185   002284  2A60               	incf	(___awmod@dividend+1)^0,f,c
  4186   002286  0E01               	movlw	1
  4187   002288  6E64               	movwf	___awmod@sign^0,c
  4188   00228A                     l9965:
  4189   00228A  BE62               	btfsc	(___awmod@divisor+1)^0,7,c
  4190   00228C  EF4C  F011         	goto	u7640
  4191   002290  EF4A  F011         	goto	u7641
  4192   002294                     u7641:
  4193   002294  EF50  F011         	goto	l9969
  4194   002298                     u7640:
  4195   002298  6C61               	negf	___awmod@divisor^0,c
  4196   00229A  1E62               	comf	(___awmod@divisor+1)^0,f,c
  4197   00229C  B0D8               	btfsc	status,0,c
  4198   00229E  2A62               	incf	(___awmod@divisor+1)^0,f,c
  4199   0022A0                     l9969:
  4200   0022A0  5061               	movf	___awmod@divisor^0,w,c
  4201   0022A2  1062               	iorwf	(___awmod@divisor+1)^0,w,c
  4202   0022A4  B4D8               	btfsc	status,2,c
  4203   0022A6  EF57  F011         	goto	u7651
  4204   0022AA  EF59  F011         	goto	u7650
  4205   0022AE                     u7651:
  4206   0022AE  EF7D  F011         	goto	l9985
  4207   0022B2                     u7650:
  4208   0022B2  0E01               	movlw	1
  4209   0022B4  6E63               	movwf	___awmod@counter^0,c
  4210   0022B6  EF61  F011         	goto	l9975
  4211   0022BA                     l9973:
  4212   0022BA  90D8               	bcf	status,0,c
  4213   0022BC  3661               	rlcf	___awmod@divisor^0,f,c
  4214   0022BE  3662               	rlcf	(___awmod@divisor+1)^0,f,c
  4215   0022C0  2A63               	incf	___awmod@counter^0,f,c
  4216   0022C2                     l9975:
  4217   0022C2  AE62               	btfss	(___awmod@divisor+1)^0,7,c
  4218   0022C4  EF66  F011         	goto	u7661
  4219   0022C8  EF68  F011         	goto	u7660
  4220   0022CC                     u7661:
  4221   0022CC  EF5D  F011         	goto	l9973
  4222   0022D0                     u7660:
  4223   0022D0                     l9977:
  4224   0022D0  5061               	movf	___awmod@divisor^0,w,c
  4225   0022D2  5C5F               	subwf	___awmod@dividend^0,w,c
  4226   0022D4  5062               	movf	(___awmod@divisor+1)^0,w,c
  4227   0022D6  5860               	subwfb	(___awmod@dividend+1)^0,w,c
  4228   0022D8  A0D8               	btfss	status,0,c
  4229   0022DA  EF71  F011         	goto	u7671
  4230   0022DE  EF73  F011         	goto	u7670
  4231   0022E2                     u7671:
  4232   0022E2  EF77  F011         	goto	l9981
  4233   0022E6                     u7670:
  4234   0022E6  5061               	movf	___awmod@divisor^0,w,c
  4235   0022E8  5E5F               	subwf	___awmod@dividend^0,f,c
  4236   0022EA  5062               	movf	(___awmod@divisor+1)^0,w,c
  4237   0022EC  5A60               	subwfb	(___awmod@dividend+1)^0,f,c
  4238   0022EE                     l9981:
  4239   0022EE  90D8               	bcf	status,0,c
  4240   0022F0  3262               	rrcf	(___awmod@divisor+1)^0,f,c
  4241   0022F2  3261               	rrcf	___awmod@divisor^0,f,c
  4242   0022F4  2E63               	decfsz	___awmod@counter^0,f,c
  4243   0022F6  EF68  F011         	goto	l9977
  4244   0022FA                     l9985:
  4245   0022FA  5064               	movf	___awmod@sign^0,w,c
  4246   0022FC  B4D8               	btfsc	status,2,c
  4247   0022FE  EF83  F011         	goto	u7681
  4248   002302  EF85  F011         	goto	u7680
  4249   002306                     u7681:
  4250   002306  EF89  F011         	goto	l9989
  4251   00230A                     u7680:
  4252   00230A  6C5F               	negf	___awmod@dividend^0,c
  4253   00230C  1E60               	comf	(___awmod@dividend+1)^0,f,c
  4254   00230E  B0D8               	btfsc	status,0,c
  4255   002310  2A60               	incf	(___awmod@dividend+1)^0,f,c
  4256   002312                     l9989:
  4257   002312  C05F  F05F         	movff	___awmod@dividend,?___awmod
  4258   002316  C060  F060         	movff	___awmod@dividend+1,?___awmod+1
  4259   00231A  0012               	return		;funcret
  4260   00231C                     __end_of___awmod:
  4261                           	callstack 0
  4262                           
  4263 ;; *************** function ___awdiv *****************
  4264 ;; Defined at:
  4265 ;;		line 7 in file "C:\Program Files\Microchip\xc8\v2.41\pic\sources\c99\common\awdiv.c"
  4266 ;; Parameters:    Size  Location     Type
  4267 ;;  dividend        2   18[COMRAM] int 
  4268 ;;  divisor         2   20[COMRAM] int 
  4269 ;; Auto vars:     Size  Location     Type
  4270 ;;  quotient        2    2[BANK1 ] int 
  4271 ;;  sign            1    1[BANK1 ] unsigned char 
  4272 ;;  counter         1    0[BANK1 ] unsigned char 
  4273 ;; Return value:  Size  Location     Type
  4274 ;;                  2   18[COMRAM] int 
  4275 ;; Registers used:
  4276 ;;		wreg, status,2, status,0
  4277 ;; Tracked objects:
  4278 ;;		On entry : 0/0
  4279 ;;		On exit  : 0/0
  4280 ;;		Unchanged: 0/0
  4281 ;; Data sizes:     COMRAM   BANK0   BANK1   BANK2   BANK3   BANK4   BANK5
  4282 ;;      Params:         4       0       0       0       0       0       0
  4283 ;;      Locals:         0       0       4       0       0       0       0
  4284 ;;      Temps:          0       0       0       0       0       0       0
  4285 ;;      Totals:         4       0       4       0       0       0       0
  4286 ;;Total ram usage:        8 bytes
  4287 ;; Hardware stack levels used: 1
  4288 ;; Hardware stack levels required when called: 5
  4289 ;; This function calls:
  4290 ;;		Nothing
  4291 ;; This function is called by:
  4292 ;;		_ReadCounter
  4293 ;; This function uses a non-reentrant model
  4294 ;;
  4295                           
  4296                           	psect	text14
  4297   0020E6                     __ptext14:
  4298                           	callstack 0
  4299   0020E6                     ___awdiv:
  4300                           	callstack 24
  4301   0020E6  0E00               	movlw	0
  4302   0020E8  0101               	movlb	1	; () banked
  4303   0020EA  6F29               	movwf	___awdiv@sign& (0+255),b
  4304   0020EC                     
  4305                           ; BSR set to: 1
  4306   0020EC  BE62               	btfsc	(___awdiv@divisor+1)^0,7,c
  4307   0020EE  EF7D  F010         	goto	u7570
  4308   0020F2  EF7B  F010         	goto	u7571
  4309   0020F6                     u7571:
  4310   0020F6  EF83  F010         	goto	l9921
  4311   0020FA                     u7570:
  4312   0020FA                     
  4313                           ; BSR set to: 1
  4314   0020FA  6C61               	negf	___awdiv@divisor^0,c
  4315   0020FC  1E62               	comf	(___awdiv@divisor+1)^0,f,c
  4316   0020FE  B0D8               	btfsc	status,0,c
  4317   002100  2A62               	incf	(___awdiv@divisor+1)^0,f,c
  4318   002102                     
  4319                           ; BSR set to: 1
  4320   002102  0E01               	movlw	1
  4321   002104  6F29               	movwf	___awdiv@sign& (0+255),b
  4322   002106                     l9921:
  4323                           
  4324                           ; BSR set to: 1
  4325   002106  BE60               	btfsc	(___awdiv@dividend+1)^0,7,c
  4326   002108  EF8A  F010         	goto	u7580
  4327   00210C  EF88  F010         	goto	u7581
  4328   002110                     u7581:
  4329   002110  EF90  F010         	goto	l9927
  4330   002114                     u7580:
  4331   002114                     
  4332                           ; BSR set to: 1
  4333   002114  6C5F               	negf	___awdiv@dividend^0,c
  4334   002116  1E60               	comf	(___awdiv@dividend+1)^0,f,c
  4335   002118  B0D8               	btfsc	status,0,c
  4336   00211A  2A60               	incf	(___awdiv@dividend+1)^0,f,c
  4337   00211C                     
  4338                           ; BSR set to: 1
  4339   00211C  0E01               	movlw	1
  4340   00211E  1B29               	xorwf	___awdiv@sign& (0+255),f,b
  4341   002120                     l9927:
  4342                           
  4343                           ; BSR set to: 1
  4344   002120  0E00               	movlw	0
  4345   002122  6F2B               	movwf	(___awdiv@quotient+1)& (0+255),b
  4346   002124  0E00               	movlw	0
  4347   002126  6F2A               	movwf	___awdiv@quotient& (0+255),b
  4348   002128                     
  4349                           ; BSR set to: 1
  4350   002128  5061               	movf	___awdiv@divisor^0,w,c
  4351   00212A  1062               	iorwf	(___awdiv@divisor+1)^0,w,c
  4352   00212C  B4D8               	btfsc	status,2,c
  4353   00212E  EF9B  F010         	goto	u7591
  4354   002132  EF9D  F010         	goto	u7590
  4355   002136                     u7591:
  4356   002136  EFC5  F010         	goto	l9949
  4357   00213A                     u7590:
  4358   00213A                     
  4359                           ; BSR set to: 1
  4360   00213A  0E01               	movlw	1
  4361   00213C  6F28               	movwf	___awdiv@counter& (0+255),b
  4362   00213E  EFA5  F010         	goto	l9935
  4363   002142                     l9933:
  4364                           
  4365                           ; BSR set to: 1
  4366   002142  90D8               	bcf	status,0,c
  4367   002144  3661               	rlcf	___awdiv@divisor^0,f,c
  4368   002146  3662               	rlcf	(___awdiv@divisor+1)^0,f,c
  4369   002148  2B28               	incf	___awdiv@counter& (0+255),f,b
  4370   00214A                     l9935:
  4371                           
  4372                           ; BSR set to: 1
  4373   00214A  AE62               	btfss	(___awdiv@divisor+1)^0,7,c
  4374   00214C  EFAA  F010         	goto	u7601
  4375   002150  EFAC  F010         	goto	u7600
  4376   002154                     u7601:
  4377   002154  EFA1  F010         	goto	l9933
  4378   002158                     u7600:
  4379   002158                     l9937:
  4380                           
  4381                           ; BSR set to: 1
  4382   002158  90D8               	bcf	status,0,c
  4383   00215A  372A               	rlcf	___awdiv@quotient& (0+255),f,b
  4384   00215C  372B               	rlcf	(___awdiv@quotient+1)& (0+255),f,b
  4385   00215E                     
  4386                           ; BSR set to: 1
  4387   00215E  5061               	movf	___awdiv@divisor^0,w,c
  4388   002160  5C5F               	subwf	___awdiv@dividend^0,w,c
  4389   002162  5062               	movf	(___awdiv@divisor+1)^0,w,c
  4390   002164  5860               	subwfb	(___awdiv@dividend+1)^0,w,c
  4391   002166  A0D8               	btfss	status,0,c
  4392   002168  EFB8  F010         	goto	u7611
  4393   00216C  EFBA  F010         	goto	u7610
  4394   002170                     u7611:
  4395   002170  EFBF  F010         	goto	l9945
  4396   002174                     u7610:
  4397   002174                     
  4398                           ; BSR set to: 1
  4399   002174  5061               	movf	___awdiv@divisor^0,w,c
  4400   002176  5E5F               	subwf	___awdiv@dividend^0,f,c
  4401   002178  5062               	movf	(___awdiv@divisor+1)^0,w,c
  4402   00217A  5A60               	subwfb	(___awdiv@dividend+1)^0,f,c
  4403   00217C                     
  4404                           ; BSR set to: 1
  4405   00217C  812A               	bsf	___awdiv@quotient& (0+255),0,b
  4406   00217E                     l9945:
  4407                           
  4408                           ; BSR set to: 1
  4409   00217E  90D8               	bcf	status,0,c
  4410   002180  3262               	rrcf	(___awdiv@divisor+1)^0,f,c
  4411   002182  3261               	rrcf	___awdiv@divisor^0,f,c
  4412   002184                     
  4413                           ; BSR set to: 1
  4414   002184  2F28               	decfsz	___awdiv@counter& (0+255),f,b
  4415   002186  EFAC  F010         	goto	l9937
  4416   00218A                     l9949:
  4417                           
  4418                           ; BSR set to: 1
  4419   00218A  5129               	movf	___awdiv@sign& (0+255),w,b
  4420   00218C  B4D8               	btfsc	status,2,c
  4421   00218E  EFCB  F010         	goto	u7621
  4422   002192  EFCD  F010         	goto	u7620
  4423   002196                     u7621:
  4424   002196  EFD1  F010         	goto	l9953
  4425   00219A                     u7620:
  4426   00219A                     
  4427                           ; BSR set to: 1
  4428   00219A  6D2A               	negf	___awdiv@quotient& (0+255),b
  4429   00219C  1F2B               	comf	(___awdiv@quotient+1)& (0+255),f,b
  4430   00219E  B0D8               	btfsc	status,0,c
  4431   0021A0  2B2B               	incf	(___awdiv@quotient+1)& (0+255),f,b
  4432   0021A2                     l9953:
  4433                           
  4434                           ; BSR set to: 1
  4435   0021A2  C12A  F05F         	movff	___awdiv@quotient,?___awdiv
  4436   0021A6  C12B  F060         	movff	___awdiv@quotient+1,?___awdiv+1
  4437   0021AA                     
  4438                           ; BSR set to: 1
  4439   0021AA  0012               	return		;funcret
  4440   0021AC                     __end_of___awdiv:
  4441                           	callstack 0
  4442                           
  4443 ;; *************** function _LEDProcess *****************
  4444 ;; Defined at:
  4445 ;;		line 106 in file "Main.c"
  4446 ;; Parameters:    Size  Location     Type
  4447 ;;		None
  4448 ;; Auto vars:     Size  Location     Type
  4449 ;;		None
  4450 ;; Return value:  Size  Location     Type
  4451 ;;                  1    wreg      void 
  4452 ;; Registers used:
  4453 ;;		wreg, status,2, status,0
  4454 ;; Tracked objects:
  4455 ;;		On entry : 0/0
  4456 ;;		On exit  : 0/0
  4457 ;;		Unchanged: 0/0
  4458 ;; Data sizes:     COMRAM   BANK0   BANK1   BANK2   BANK3   BANK4   BANK5
  4459 ;;      Params:         0       0       0       0       0       0       0
  4460 ;;      Locals:         0       0       0       0       0       0       0
  4461 ;;      Temps:          2       0       0       0       0       0       0
  4462 ;;      Totals:         2       0       0       0       0       0       0
  4463 ;;Total ram usage:        2 bytes
  4464 ;; Hardware stack levels used: 1
  4465 ;; Hardware stack levels required when called: 5
  4466 ;; This function calls:
  4467 ;;		Nothing
  4468 ;; This function is called by:
  4469 ;;		_main
  4470 ;; This function uses a non-reentrant model
  4471 ;;
  4472                           
  4473                           	psect	text15
  4474   001BE2                     __ptext15:
  4475                           	callstack 0
  4476   001BE2                     _LEDProcess:
  4477                           	callstack 25
  4478   001BE2                     
  4479                           ;Main.c: 107:     display_datas[ 7 ] &= 0x00;
  4480   001BE2  0E00               	movlw	0
  4481   001BE4  0100               	movlb	0	; () banked
  4482   001BE6  6F8F               	movwf	(_display_datas+7)& (0+255),b
  4483                           
  4484                           ;Main.c: 108:     switch( SYSTEM_STATE_FLG ){
  4485   001BE8  EF3A  F00E         	goto	l7289
  4486   001BEC                     l7255:
  4487                           
  4488                           ; BSR set to: 0
  4489                           ;Main.c: 111:             if( rtc_clock_disp_type == 0 ) display_datas[ 7 ] |= 0x01;
  4490   001BEC  504C               	movf	_rtc_clock_disp_type^0,w,c
  4491   001BEE  A4D8               	btfss	status,2,c
  4492   001BF0  EFFC  F00D         	goto	u5161
  4493   001BF4  EFFE  F00D         	goto	u5160
  4494   001BF8                     u5161:
  4495   001BF8  EF01  F00E         	goto	l7259
  4496   001BFC                     u5160:
  4497   001BFC                     l7257:
  4498                           
  4499                           ; BSR set to: 0
  4500   001BFC  818F               	bsf	(_display_datas+7)& (0+255),0,b
  4501   001BFE  EF69  F00E         	goto	l363
  4502   001C02                     l7259:
  4503                           
  4504                           ; BSR set to: 0
  4505   001C02  838F               	bsf	(_display_datas+7)& (0+255),1,b
  4506   001C04  EF69  F00E         	goto	l363
  4507   001C08                     l7263:
  4508                           
  4509                           ; BSR set to: 0
  4510                           ;Main.c: 115:             if(counter_down_comp_flg) { display_datas[ 7 ] |= 0x10; }
  4511   001C08  5034               	movf	_counter_down_comp_flg^0,w,c
  4512   001C0A  B4D8               	btfsc	status,2,c
  4513   001C0C  EF0A  F00E         	goto	u5171
  4514   001C10  EF0C  F00E         	goto	u5170
  4515   001C14                     u5171:
  4516   001C14  EF0F  F00E         	goto	l7267
  4517   001C18                     u5170:
  4518   001C18                     
  4519                           ; BSR set to: 0
  4520   001C18  898F               	bsf	(_display_datas+7)& (0+255),4,b
  4521   001C1A  EF10  F00E         	goto	l7269
  4522   001C1E                     l7267:
  4523                           
  4524                           ; BSR set to: 0
  4525   001C1E  8B8F               	bsf	(_display_datas+7)& (0+255),5,b
  4526   001C20                     l7269:
  4527                           
  4528                           ; BSR set to: 0
  4529                           ;Main.c: 117:             if( counter_skip_flg ) {
  4530   001C20  5036               	movf	_counter_skip_flg^0,w,c
  4531   001C22  B4D8               	btfsc	status,2,c
  4532   001C24  EF16  F00E         	goto	u5181
  4533   001C28  EF18  F00E         	goto	u5180
  4534   001C2C                     u5181:
  4535   001C2C  EF5F  F00E         	goto	l7291
  4536   001C30                     u5180:
  4537   001C30                     
  4538                           ; BSR set to: 0
  4539                           ;Main.c: 118:                 led_blink_cnt ++;
  4540   001C30  4A18               	infsnz	_led_blink_cnt^0,f,c
  4541   001C32  2A19               	incf	(_led_blink_cnt+1)^0,f,c
  4542   001C34                     
  4543                           ; BSR set to: 0
  4544                           ;Main.c: 119:                 if( led_blink_cnt < 25 / 2 ) display_datas[ 7 ] |= 0x04;
  4545   001C34  5019               	movf	(_led_blink_cnt+1)^0,w,c
  4546   001C36  E107               	bnz	u5191
  4547   001C38  0E0C               	movlw	12
  4548   001C3A  5C18               	subwf	_led_blink_cnt^0,w,c
  4549   001C3C  B0D8               	btfsc	status,0,c
  4550   001C3E  EF23  F00E         	goto	u5191
  4551   001C42  EF25  F00E         	goto	u5190
  4552   001C46                     u5191:
  4553   001C46  EF26  F00E         	goto	l7277
  4554   001C4A                     u5190:
  4555   001C4A                     
  4556                           ; BSR set to: 0
  4557   001C4A  858F               	bsf	(_display_datas+7)& (0+255),2,b
  4558   001C4C                     l7277:
  4559                           
  4560                           ; BSR set to: 0
  4561                           ;Main.c: 120:                 if( led_blink_cnt > 25 ) led_blink_cnt = 0;
  4562   001C4C  5019               	movf	(_led_blink_cnt+1)^0,w,c
  4563   001C4E  E109               	bnz	u5200
  4564   001C50  0E1A               	movlw	26
  4565   001C52  5C18               	subwf	_led_blink_cnt^0,w,c
  4566   001C54  A0D8               	btfss	status,0,c
  4567   001C56  EF2F  F00E         	goto	u5201
  4568   001C5A  EF31  F00E         	goto	u5200
  4569   001C5E                     u5201:
  4570   001C5E  EF5F  F00E         	goto	l7291
  4571   001C62                     u5200:
  4572   001C62                     
  4573                           ; BSR set to: 0
  4574   001C62  0E00               	movlw	0
  4575   001C64  6E19               	movwf	(_led_blink_cnt+1)^0,c
  4576   001C66  0E00               	movlw	0
  4577   001C68  6E18               	movwf	_led_blink_cnt^0,c
  4578   001C6A  EF5F  F00E         	goto	l7291
  4579   001C6E                     l7281:
  4580                           
  4581                           ; BSR set to: 0
  4582                           ;Main.c: 124:             display_datas[ 7 ] |= 0x10;
  4583   001C6E  898F               	bsf	(_display_datas+7)& (0+255),4,b
  4584                           
  4585                           ;Main.c: 125:             break;
  4586   001C70  EF5F  F00E         	goto	l7291
  4587   001C74                     l7289:
  4588                           
  4589                           ; BSR set to: 0
  4590   001C74  5048               	movf	_SYSTEM_STATE_FLG^0,w,c
  4591   001C76  6E5F               	movwf	??_LEDProcess^0,c
  4592   001C78  6A60               	clrf	(??_LEDProcess+1)^0,c
  4593                           
  4594                           ; Switch on 2 bytes has been partitioned into a top level switch of size 1, and 1 sub-sw
      +                          itches
  4595                           ; Switch size 1, requested type "simple"
  4596                           ; Number of cases is 1, Range of values is 0 to 0
  4597                           ; switch strategies available:
  4598                           ; Name         Instructions Cycles
  4599                           ; simple_byte            4     3 (average)
  4600                           ;	Chosen strategy is simple_byte
  4601   001C7A  5060               	movf	(??_LEDProcess+1)^0,w,c
  4602   001C7C  0A00               	xorlw	0	; case 0
  4603   001C7E  B4D8               	btfsc	status,2,c
  4604   001C80  EF44  F00E         	goto	l10647
  4605   001C84  EF5F  F00E         	goto	l7291
  4606   001C88                     l10647:
  4607                           
  4608                           ; BSR set to: 0
  4609                           ; Switch size 1, requested type "simple"
  4610                           ; Number of cases is 6, Range of values is 100 to 203
  4611                           ; switch strategies available:
  4612                           ; Name         Instructions Cycles
  4613                           ; simple_byte           19    10 (average)
  4614                           ;	Chosen strategy is simple_byte
  4615   001C88  505F               	movf	??_LEDProcess^0,w,c
  4616   001C8A  0A64               	xorlw	100	; case 100
  4617   001C8C  B4D8               	btfsc	status,2,c
  4618   001C8E  EFF6  F00D         	goto	l7255
  4619   001C92  0A01               	xorlw	1	; case 101
  4620   001C94  B4D8               	btfsc	status,2,c
  4621   001C96  EFF6  F00D         	goto	l7255
  4622   001C9A  0AAD               	xorlw	173	; case 200
  4623   001C9C  B4D8               	btfsc	status,2,c
  4624   001C9E  EF04  F00E         	goto	l7263
  4625   001CA2  0A01               	xorlw	1	; case 201
  4626   001CA4  B4D8               	btfsc	status,2,c
  4627   001CA6  EF37  F00E         	goto	l7281
  4628   001CAA  0A03               	xorlw	3	; case 202
  4629   001CAC  B4D8               	btfsc	status,2,c
  4630   001CAE  EF37  F00E         	goto	l7281
  4631   001CB2  0A01               	xorlw	1	; case 203
  4632   001CB4  B4D8               	btfsc	status,2,c
  4633   001CB6  EF37  F00E         	goto	l7281
  4634   001CBA  EF5F  F00E         	goto	l7291
  4635   001CBE                     l7291:
  4636                           
  4637                           ; BSR set to: 0
  4638                           ;Main.c: 133:     if( counter_direction_flg == 1 ) { display_datas[ 7 ] |= 0x01; }
  4639   001CBE  0437               	decf	_counter_direction_flg^0,w,c
  4640   001CC0  A4D8               	btfss	status,2,c
  4641   001CC2  EF65  F00E         	goto	u5211
  4642   001CC6  EF67  F00E         	goto	u5210
  4643   001CCA                     u5211:
  4644   001CCA  EF01  F00E         	goto	l7259
  4645   001CCE                     u5210:
  4646   001CCE  EFFE  F00D         	goto	l7257
  4647   001CD2                     l363:
  4648                           
  4649                           ; BSR set to: 0
  4650   001CD2  0012               	return		;funcret
  4651   001CD4                     __end_of_LEDProcess:
  4652                           	callstack 0
  4653                           
  4654 ;; *************** function _DeviceInit *****************
  4655 ;; Defined at:
  4656 ;;		line 72 in file "Main.c"
  4657 ;; Parameters:    Size  Location     Type
  4658 ;;		None
  4659 ;; Auto vars:     Size  Location     Type
  4660 ;;		None
  4661 ;; Return value:  Size  Location     Type
  4662 ;;                  1    wreg      void 
  4663 ;; Registers used:
  4664 ;;		wreg, fsr1l, fsr1h, fsr2l, fsr2h, status,2, status,0, tblptrl, tblptrh, tblptru, cstack
  4665 ;; Tracked objects:
  4666 ;;		On entry : 0/0
  4667 ;;		On exit  : 0/0
  4668 ;;		Unchanged: 0/0
  4669 ;; Data sizes:     COMRAM   BANK0   BANK1   BANK2   BANK3   BANK4   BANK5
  4670 ;;      Params:         0       0       0       0       0       0       0
  4671 ;;      Locals:         0       0       0       0       0       0       0
  4672 ;;      Temps:          0       0       0       0       0       0       0
  4673 ;;      Totals:         0       0       0       0       0       0       0
  4674 ;;Total ram usage:        0 bytes
  4675 ;; Hardware stack levels used: 1
  4676 ;; Hardware stack levels required when called: 10
  4677 ;; This function calls:
  4678 ;;		_DetectStatus
  4679 ;;		_Ds1307Init
  4680 ;;		_EnableAllInterrupts
  4681 ;;		_InitValue
  4682 ;;		_Open1USART
  4683 ;;		_OpenButtons
  4684 ;;		_OpenCounter
  4685 ;;		_OpenDisplay
  4686 ;;		_OpenTimer0
  4687 ;;		_OscillatorInit
  4688 ;;		_Puts1USART
  4689 ;;		_StartTimer0
  4690 ;;		_WriteTimer0
  4691 ;; This function is called by:
  4692 ;;		_main
  4693 ;; This function uses a non-reentrant model
  4694 ;;
  4695                           
  4696                           	psect	text16
  4697   0026B2                     __ptext16:
  4698                           	callstack 0
  4699   0026B2                     _DeviceInit:
  4700                           	callstack 20
  4701   0026B2                     
  4702                           ;Main.c: 74:     OscillatorInit();
  4703   0026B2  EC2A  F015         	call	_OscillatorInit	;wreg free
  4704   0026B6                     
  4705                           ;Main.c: 76:     ADCON0 = 0x00; ADCON1 = 0x0F;
  4706   0026B6  0E00               	movlw	0
  4707   0026B8  6EC2               	movwf	194,c	;volatile
  4708   0026BA  0E0F               	movlw	15
  4709   0026BC  6EC1               	movwf	193,c	;volatile
  4710                           
  4711                           ;Main.c: 77:     EnableAllInterrupts();
  4712   0026BE  EC44  F015         	call	_EnableAllInterrupts	;wreg free
  4713   0026C2                     
  4714                           ;Main.c: 79:     DetectStatus();
  4715   0026C2  ECD7  F011         	call	_DetectStatus	;wreg free
  4716   0026C6                     
  4717                           ;Main.c: 82:     OpenTimer0( 0b11111111 & 0b10111111 & 0b11011111 & 0b11110010 );
  4718   0026C6  0E92               	movlw	146
  4719   0026C8  EC48  F014         	call	_OpenTimer0
  4720   0026CC                     
  4721                           ;Main.c: 83:     WriteTimer0( 65285 ); StartTimer0();
  4722   0026CC  0EFF               	movlw	255
  4723   0026CE  6E60               	movwf	(WriteTimer0@timer0+1)^0,c
  4724   0026D0  0E05               	movlw	5
  4725   0026D2  6E5F               	movwf	WriteTimer0@timer0^0,c
  4726   0026D4  ECED  F014         	call	_WriteTimer0	;wreg free
  4727   0026D8  EC42  F015         	call	_StartTimer0	;wreg free
  4728   0026DC                     
  4729                           ;Main.c: 85:     OpenCounter();
  4730   0026DC  EC8B  F013         	call	_OpenCounter	;wreg free
  4731   0026E0                     
  4732                           ;Main.c: 86:     OpenDisplay();
  4733   0026E0  EC21  F013         	call	_OpenDisplay	;wreg free
  4734   0026E4                     
  4735                           ;Main.c: 87:     OpenButtons();
  4736   0026E4  ECA8  F012         	call	_OpenButtons	;wreg free
  4737   0026E8                     
  4738                           ;Main.c: 88:     Ds1307Init();
  4739   0026E8  EC31  F015         	call	_Ds1307Init	;wreg free
  4740   0026EC                     
  4741                           ;Main.c: 93:     InitValue();
  4742   0026EC  EC1E  F012         	call	_InitValue	;wreg free
  4743   0026F0                     
  4744                           ;Main.c: 95:     Open1USART( 0b01111111 &
  4745   0026F0  0E00               	movlw	0
  4746   0026F2  6E60               	movwf	(Open1USART@spbrg+1)^0,c
  4747   0026F4  0E67               	movlw	103
  4748   0026F6  6E5F               	movwf	Open1USART@spbrg^0,c
  4749   0026F8  0E3C               	movlw	60
  4750   0026FA  ECD6  F010         	call	_Open1USART
  4751   0026FE                     
  4752                           ;Main.c: 101:     Puts1USART( "This is Ethernet protocol test firmware!\r\n" );
  4753   0026FE  0E01               	movlw	low STR_1
  4754   002700  6E60               	movwf	Puts1USART@data^0,c
  4755   002702  0E06               	movlw	high STR_1
  4756   002704  6E61               	movwf	(Puts1USART@data+1)^0,c
  4757   002706  ECAF  F013         	call	_Puts1USART	;wreg free
  4758   00270A                     
  4759                           ;Main.c: 103:     set_mode_release_cnt = 0;
  4760   00270A  0E00               	movlw	0
  4761   00270C  0100               	movlb	0	; () banked
  4762   00270E  6FC3               	movwf	(_set_mode_release_cnt+1)& (0+255),b
  4763   002710  0E00               	movlw	0
  4764   002712  6FC2               	movwf	_set_mode_release_cnt& (0+255),b
  4765   002714                     
  4766                           ; BSR set to: 0
  4767   002714  0012               	return		;funcret
  4768   002716                     __end_of_DeviceInit:
  4769                           	callstack 0
  4770                           
  4771 ;; *************** function _WriteTimer0 *****************
  4772 ;; Defined at:
  4773 ;;		line 37 in file "Timers.c"
  4774 ;; Parameters:    Size  Location     Type
  4775 ;;  timer0          2   18[COMRAM] unsigned int 
  4776 ;; Auto vars:     Size  Location     Type
  4777 ;;  timer           2   20[COMRAM] struct Timers
  4778 ;; Return value:  Size  Location     Type
  4779 ;;                  1    wreg      void 
  4780 ;; Registers used:
  4781 ;;		None
  4782 ;; Tracked objects:
  4783 ;;		On entry : 0/0
  4784 ;;		On exit  : 0/0
  4785 ;;		Unchanged: 0/0
  4786 ;; Data sizes:     COMRAM   BANK0   BANK1   BANK2   BANK3   BANK4   BANK5
  4787 ;;      Params:         2       0       0       0       0       0       0
  4788 ;;      Locals:         2       0       0       0       0       0       0
  4789 ;;      Temps:          0       0       0       0       0       0       0
  4790 ;;      Totals:         4       0       0       0       0       0       0
  4791 ;;Total ram usage:        4 bytes
  4792 ;; Hardware stack levels used: 1
  4793 ;; Hardware stack levels required when called: 5
  4794 ;; This function calls:
  4795 ;;		Nothing
  4796 ;; This function is called by:
  4797 ;;		_DeviceInit
  4798 ;; This function uses a non-reentrant model
  4799 ;;
  4800                           
  4801                           	psect	text17
  4802   0029DA                     __ptext17:
  4803                           	callstack 0
  4804   0029DA                     _WriteTimer0:
  4805                           	callstack 24
  4806   0029DA                     
  4807                           ;Timers.c: 37: void WriteTimer0(unsigned int timer0);Timers.c: 38: {;Timers.c: 39:     u
      +                          nion Timers timer;;Timers.c: 41:     timer.lt = timer0;
  4808   0029DA  C05F  F061         	movff	WriteTimer0@timer0,WriteTimer0@timer
  4809   0029DE  C060  F062         	movff	WriteTimer0@timer0+1,WriteTimer0@timer+1
  4810                           
  4811                           ;Timers.c: 43:     TMR0H = timer.bt[1];
  4812   0029E2  C062  FFD7         	movff	WriteTimer0@timer+1,4055	;volatile
  4813                           
  4814                           ;Timers.c: 44:     TMR0L = timer.bt[0];
  4815   0029E6  C061  FFD6         	movff	WriteTimer0@timer,4054	;volatile
  4816   0029EA  0012               	return		;funcret
  4817   0029EC                     __end_of_WriteTimer0:
  4818                           	callstack 0
  4819                           
  4820 ;; *************** function _StartTimer0 *****************
  4821 ;; Defined at:
  4822 ;;		line 47 in file "Timers.c"
  4823 ;; Parameters:    Size  Location     Type
  4824 ;;		None
  4825 ;; Auto vars:     Size  Location     Type
  4826 ;;		None
  4827 ;; Return value:  Size  Location     Type
  4828 ;;                  1    wreg      void 
  4829 ;; Registers used:
  4830 ;;		None
  4831 ;; Tracked objects:
  4832 ;;		On entry : 0/0
  4833 ;;		On exit  : 0/0
  4834 ;;		Unchanged: 0/0
  4835 ;; Data sizes:     COMRAM   BANK0   BANK1   BANK2   BANK3   BANK4   BANK5
  4836 ;;      Params:         0       0       0       0       0       0       0
  4837 ;;      Locals:         0       0       0       0       0       0       0
  4838 ;;      Temps:          0       0       0       0       0       0       0
  4839 ;;      Totals:         0       0       0       0       0       0       0
  4840 ;;Total ram usage:        0 bytes
  4841 ;; Hardware stack levels used: 1
  4842 ;; Hardware stack levels required when called: 5
  4843 ;; This function calls:
  4844 ;;		Nothing
  4845 ;; This function is called by:
  4846 ;;		_DeviceInit
  4847 ;; This function uses a non-reentrant model
  4848 ;;
  4849                           
  4850                           	psect	text18
  4851   002A84                     __ptext18:
  4852                           	callstack 0
  4853   002A84                     _StartTimer0:
  4854                           	callstack 24
  4855   002A84                     
  4856                           ;Timers.c: 48:     T0CONbits.TMR0ON = 1;
  4857   002A84  8ED5               	bsf	213,7,c	;volatile
  4858   002A86  0012               	return		;funcret
  4859   002A88                     __end_of_StartTimer0:
  4860                           	callstack 0
  4861                           
  4862 ;; *************** function _Puts1USART *****************
  4863 ;; Defined at:
  4864 ;;		line 105 in file "Uart.c"
  4865 ;; Parameters:    Size  Location     Type
  4866 ;;  data            2   19[COMRAM] PTR unsigned char 
  4867 ;;		 -> STR_1(43), 
  4868 ;; Auto vars:     Size  Location     Type
  4869 ;;		None
  4870 ;; Return value:  Size  Location     Type
  4871 ;;                  1    wreg      void 
  4872 ;; Registers used:
  4873 ;;		wreg, status,2, status,0, tblptrl, tblptrh, tblptru, cstack
  4874 ;; Tracked objects:
  4875 ;;		On entry : 0/0
  4876 ;;		On exit  : 0/0
  4877 ;;		Unchanged: 0/0
  4878 ;; Data sizes:     COMRAM   BANK0   BANK1   BANK2   BANK3   BANK4   BANK5
  4879 ;;      Params:         2       0       0       0       0       0       0
  4880 ;;      Locals:         0       0       0       0       0       0       0
  4881 ;;      Temps:          0       0       0       0       0       0       0
  4882 ;;      Totals:         2       0       0       0       0       0       0
  4883 ;;Total ram usage:        2 bytes
  4884 ;; Hardware stack levels used: 1
  4885 ;; Hardware stack levels required when called: 6
  4886 ;; This function calls:
  4887 ;;		_Busy1USART
  4888 ;;		_Write1USART
  4889 ;; This function is called by:
  4890 ;;		_DeviceInit
  4891 ;; This function uses a non-reentrant model
  4892 ;;
  4893                           
  4894                           	psect	text19
  4895   00275E                     __ptext19:
  4896                           	callstack 0
  4897   00275E                     _Puts1USART:
  4898                           	callstack 23
  4899   00275E                     l1805:
  4900   00275E                     l6555:
  4901   00275E  ECCC  F014         	call	_Busy1USART	;wreg free
  4902   002762  0900               	iorlw	0
  4903   002764  A4D8               	btfss	status,2,c
  4904   002766  EFB7  F013         	goto	u4331
  4905   00276A  EFB9  F013         	goto	u4330
  4906   00276E                     u4331:
  4907   00276E  EFAF  F013         	goto	l6555
  4908   002772                     u4330:
  4909   002772                     
  4910                           ;Uart.c: 109:             Write1USART(*data);
  4911   002772  C060  FFF6         	movff	Puts1USART@data,tblptrl
  4912   002776  C061  FFF7         	movff	Puts1USART@data+1,tblptrh
  4913   00277A                     	if	0	;tblptru may be non-zero
  4914   00277A                     	endif
  4915   00277A                     	if	0	;tblptru may be non-zero
  4916   00277A                     	endif
  4917   00277A  0008               	tblrd		*
  4918   00277C  50F5               	movf	tablat,w,c
  4919   00277E  EC5D  F014         	call	_Write1USART
  4920   002782                     
  4921                           ;Uart.c: 110:     } while( *data++ );
  4922   002782  C060  FFF6         	movff	Puts1USART@data,tblptrl
  4923   002786  C061  FFF7         	movff	Puts1USART@data+1,tblptrh
  4924   00278A  4A60               	infsnz	Puts1USART@data^0,f,c
  4925   00278C  2A61               	incf	(Puts1USART@data+1)^0,f,c
  4926   00278E                     	if	0	;tblptru may be non-zero
  4927   00278E                     	endif
  4928   00278E                     	if	0	;tblptru may be non-zero
  4929   00278E                     	endif
  4930   00278E  0008               	tblrd		*
  4931   002790  50F5               	movf	tablat,w,c
  4932   002792  0900               	iorlw	0
  4933   002794  A4D8               	btfss	status,2,c
  4934   002796  EFCF  F013         	goto	u4341
  4935   00279A  EFD1  F013         	goto	u4340
  4936   00279E                     u4341:
  4937   00279E  EFAF  F013         	goto	l1805
  4938   0027A2                     u4340:
  4939   0027A2  0012               	return		;funcret
  4940   0027A4                     __end_of_Puts1USART:
  4941                           	callstack 0
  4942                           
  4943 ;; *************** function _Write1USART *****************
  4944 ;; Defined at:
  4945 ;;		line 79 in file "Uart.c"
  4946 ;; Parameters:    Size  Location     Type
  4947 ;;  data            1    wreg     unsigned char 
  4948 ;; Auto vars:     Size  Location     Type
  4949 ;;  data            1   18[COMRAM] unsigned char 
  4950 ;; Return value:  Size  Location     Type
  4951 ;;                  1    wreg      void 
  4952 ;; Registers used:
  4953 ;;		wreg
  4954 ;; Tracked objects:
  4955 ;;		On entry : 0/0
  4956 ;;		On exit  : 0/0
  4957 ;;		Unchanged: 0/0
  4958 ;; Data sizes:     COMRAM   BANK0   BANK1   BANK2   BANK3   BANK4   BANK5
  4959 ;;      Params:         0       0       0       0       0       0       0
  4960 ;;      Locals:         1       0       0       0       0       0       0
  4961 ;;      Temps:          0       0       0       0       0       0       0
  4962 ;;      Totals:         1       0       0       0       0       0       0
  4963 ;;Total ram usage:        1 bytes
  4964 ;; Hardware stack levels used: 1
  4965 ;; Hardware stack levels required when called: 5
  4966 ;; This function calls:
  4967 ;;		Nothing
  4968 ;; This function is called by:
  4969 ;;		_Puts1USART
  4970 ;; This function uses a non-reentrant model
  4971 ;;
  4972                           
  4973                           	psect	text20
  4974   0028BA                     __ptext20:
  4975                           	callstack 0
  4976   0028BA                     _Write1USART:
  4977                           	callstack 23
  4978                           
  4979                           ;incstack = 0
  4980                           ;Write1USART@data stored from wreg
  4981   0028BA  6E5F               	movwf	Write1USART@data^0,c
  4982   0028BC                     
  4983                           ;Uart.c: 80:     if(TXSTA1bits.TX9)
  4984   0028BC  ACAC               	btfss	172,6,c	;volatile
  4985   0028BE  EF63  F014         	goto	u4071
  4986   0028C2  EF65  F014         	goto	u4070
  4987   0028C6                     u4071:
  4988   0028C6  EF6E  F014         	goto	l6425
  4989   0028CA                     u4070:
  4990   0028CA                     
  4991                           ;Uart.c: 81:     {;Uart.c: 82:         TXSTA1bits.TX9D = 0;
  4992   0028CA  90AC               	bcf	172,0,c	;volatile
  4993                           
  4994                           ;Uart.c: 83:         if(USART1_Status.TX_NINE)
  4995   0028CC  A22B               	btfss	_USART1_Status^0,1,c	;volatile
  4996   0028CE  EF6B  F014         	goto	u4081
  4997   0028D2  EF6D  F014         	goto	u4080
  4998   0028D6                     u4081:
  4999   0028D6  EF6E  F014         	goto	l6425
  5000   0028DA                     u4080:
  5001   0028DA                     
  5002                           ;Uart.c: 84:             TXSTA1bits.TX9D = 1;
  5003   0028DA  80AC               	bsf	172,0,c	;volatile
  5004   0028DC                     l6425:
  5005                           
  5006                           ;Uart.c: 87:     TXREG1 = data;
  5007   0028DC  C05F  FFAD         	movff	Write1USART@data,4013	;volatile
  5008   0028E0  0012               	return		;funcret
  5009   0028E2                     __end_of_Write1USART:
  5010                           	callstack 0
  5011                           
  5012 ;; *************** function _Busy1USART *****************
  5013 ;; Defined at:
  5014 ;;		line 49 in file "Uart.c"
  5015 ;; Parameters:    Size  Location     Type
  5016 ;;		None
  5017 ;; Auto vars:     Size  Location     Type
  5018 ;;		None
  5019 ;; Return value:  Size  Location     Type
  5020 ;;                  1    wreg      unsigned char 
  5021 ;; Registers used:
  5022 ;;		wreg
  5023 ;; Tracked objects:
  5024 ;;		On entry : 0/0
  5025 ;;		On exit  : 0/0
  5026 ;;		Unchanged: 0/0
  5027 ;; Data sizes:     COMRAM   BANK0   BANK1   BANK2   BANK3   BANK4   BANK5
  5028 ;;      Params:         0       0       0       0       0       0       0
  5029 ;;      Locals:         0       0       0       0       0       0       0
  5030 ;;      Temps:          0       0       0       0       0       0       0
  5031 ;;      Totals:         0       0       0       0       0       0       0
  5032 ;;Total ram usage:        0 bytes
  5033 ;; Hardware stack levels used: 1
  5034 ;; Hardware stack levels required when called: 5
  5035 ;; This function calls:
  5036 ;;		Nothing
  5037 ;; This function is called by:
  5038 ;;		_Puts1USART
  5039 ;; This function uses a non-reentrant model
  5040 ;;
  5041                           
  5042                           	psect	text21
  5043   002998                     __ptext21:
  5044                           	callstack 0
  5045   002998                     _Busy1USART:
  5046                           	callstack 23
  5047   002998                     
  5048                           ;Uart.c: 51:     if(!TXSTA1bits.TRMT)
  5049   002998  B2AC               	btfsc	172,1,c	;volatile
  5050   00299A  EFD1  F014         	goto	u4061
  5051   00299E  EFD3  F014         	goto	u4060
  5052   0029A2                     u4061:
  5053   0029A2  EFD6  F014         	goto	l6415
  5054   0029A6                     u4060:
  5055   0029A6                     
  5056                           ;Uart.c: 52:         return 1;
  5057   0029A6  0E01               	movlw	1
  5058   0029A8  EFD7  F014         	goto	l1781
  5059   0029AC                     l6415:
  5060                           
  5061                           ;Uart.c: 53:     return 0;
  5062   0029AC  0E00               	movlw	0
  5063   0029AE                     l1781:
  5064   0029AE  0012               	return		;funcret
  5065   0029B0                     __end_of_Busy1USART:
  5066                           	callstack 0
  5067                           
  5068 ;; *************** function _OscillatorInit *****************
  5069 ;; Defined at:
  5070 ;;		line 11 in file "Config.c"
  5071 ;; Parameters:    Size  Location     Type
  5072 ;;		None
  5073 ;; Auto vars:     Size  Location     Type
  5074 ;;		None
  5075 ;; Return value:  Size  Location     Type
  5076 ;;                  1    wreg      void 
  5077 ;; Registers used:
  5078 ;;		None
  5079 ;; Tracked objects:
  5080 ;;		On entry : 0/0
  5081 ;;		On exit  : 0/0
  5082 ;;		Unchanged: 0/0
  5083 ;; Data sizes:     COMRAM   BANK0   BANK1   BANK2   BANK3   BANK4   BANK5
  5084 ;;      Params:         0       0       0       0       0       0       0
  5085 ;;      Locals:         0       0       0       0       0       0       0
  5086 ;;      Temps:          0       0       0       0       0       0       0
  5087 ;;      Totals:         0       0       0       0       0       0       0
  5088 ;;Total ram usage:        0 bytes
  5089 ;; Hardware stack levels used: 1
  5090 ;; Hardware stack levels required when called: 5
  5091 ;; This function calls:
  5092 ;;		Nothing
  5093 ;; This function is called by:
  5094 ;;		_DeviceInit
  5095 ;; This function uses a non-reentrant model
  5096 ;;
  5097                           
  5098                           	psect	text22
  5099   002A54                     __ptext22:
  5100                           	callstack 0
  5101   002A54                     _OscillatorInit:
  5102                           	callstack 24
  5103   002A54                     
  5104                           ;Config.c: 13:     OSCCONbits.IRCF0 = 1;
  5105   002A54  88D3               	bsf	211,4,c	;volatile
  5106                           
  5107                           ;Config.c: 14:     OSCCONbits.IRCF1 = 1;
  5108   002A56  8AD3               	bsf	211,5,c	;volatile
  5109                           
  5110                           ;Config.c: 15:     OSCCONbits.IRCF2 = 1;
  5111   002A58  8CD3               	bsf	211,6,c	;volatile
  5112                           
  5113                           ;Config.c: 16:     OSCTUNEbits.PLLEN = 1;
  5114   002A5A  8C9B               	bsf	155,6,c	;volatile
  5115                           
  5116                           ;Config.c: 18:     OSCCONbits.SCS0 = 0;
  5117   002A5C  90D3               	bcf	211,0,c	;volatile
  5118                           
  5119                           ;Config.c: 19:     OSCCONbits.SCS1 = 1;
  5120   002A5E  82D3               	bsf	211,1,c	;volatile
  5121   002A60  0012               	return		;funcret
  5122   002A62                     __end_of_OscillatorInit:
  5123                           	callstack 0
  5124                           
  5125 ;; *************** function _OpenTimer0 *****************
  5126 ;; Defined at:
  5127 ;;		line 13 in file "Timers.c"
  5128 ;; Parameters:    Size  Location     Type
  5129 ;;  config          1    wreg     unsigned char 
  5130 ;; Auto vars:     Size  Location     Type
  5131 ;;  config          1   18[COMRAM] unsigned char 
  5132 ;; Return value:  Size  Location     Type
  5133 ;;                  1    wreg      void 
  5134 ;; Registers used:
  5135 ;;		wreg, status,2, status,0
  5136 ;; Tracked objects:
  5137 ;;		On entry : 0/0
  5138 ;;		On exit  : 0/0
  5139 ;;		Unchanged: 0/0
  5140 ;; Data sizes:     COMRAM   BANK0   BANK1   BANK2   BANK3   BANK4   BANK5
  5141 ;;      Params:         0       0       0       0       0       0       0
  5142 ;;      Locals:         1       0       0       0       0       0       0
  5143 ;;      Temps:          0       0       0       0       0       0       0
  5144 ;;      Totals:         1       0       0       0       0       0       0
  5145 ;;Total ram usage:        1 bytes
  5146 ;; Hardware stack levels used: 1
  5147 ;; Hardware stack levels required when called: 5
  5148 ;; This function calls:
  5149 ;;		Nothing
  5150 ;; This function is called by:
  5151 ;;		_DeviceInit
  5152 ;; This function uses a non-reentrant model
  5153 ;;
  5154                           
  5155                           	psect	text23
  5156   002890                     __ptext23:
  5157                           	callstack 0
  5158   002890                     _OpenTimer0:
  5159                           	callstack 24
  5160                           
  5161                           ;incstack = 0
  5162                           ;OpenTimer0@config stored from wreg
  5163   002890  6E5F               	movwf	OpenTimer0@config^0,c
  5164   002892                     
  5165                           ;Timers.c: 13: void OpenTimer0(unsigned char config);Timers.c: 14: {;Timers.c: 15:     T
      +                          0CON = (0x7f & config);
  5166   002892  505F               	movf	OpenTimer0@config^0,w,c
  5167   002894  0B7F               	andlw	127
  5168   002896  6ED5               	movwf	213,c	;volatile
  5169   002898                     
  5170                           ;Timers.c: 16:     TMR0H = 0;
  5171   002898  0E00               	movlw	0
  5172   00289A  6ED7               	movwf	215,c	;volatile
  5173   00289C                     
  5174                           ;Timers.c: 17:     TMR0L = 0;
  5175   00289C  0E00               	movlw	0
  5176   00289E  6ED6               	movwf	214,c	;volatile
  5177   0028A0                     
  5178                           ;Timers.c: 18:     INTCONbits.TMR0IF = 0;
  5179   0028A0  94F2               	bcf	242,2,c	;volatile
  5180   0028A2                     
  5181                           ;Timers.c: 20:     if(config&0x80)
  5182   0028A2  AE5F               	btfss	OpenTimer0@config^0,7,c
  5183   0028A4  EF56  F014         	goto	u4171
  5184   0028A8  EF58  F014         	goto	u4170
  5185   0028AC                     u4171:
  5186   0028AC  EF5B  F014         	goto	l467
  5187   0028B0                     u4170:
  5188   0028B0                     
  5189                           ;Timers.c: 21:         INTCONbits.TMR0IE = 1;
  5190   0028B0  8AF2               	bsf	242,5,c	;volatile
  5191   0028B2  EF5C  F014         	goto	l469
  5192   0028B6                     l467:
  5193                           
  5194                           ;Timers.c: 23:         INTCONbits.TMR0IE = 0;
  5195   0028B6  9AF2               	bcf	242,5,c	;volatile
  5196   0028B8                     l469:
  5197   0028B8  0012               	return		;funcret
  5198   0028BA                     __end_of_OpenTimer0:
  5199                           	callstack 0
  5200                           
  5201 ;; *************** function _OpenDisplay *****************
  5202 ;; Defined at:
  5203 ;;		line 9 in file "Display.c"
  5204 ;; Parameters:    Size  Location     Type
  5205 ;;		None
  5206 ;; Auto vars:     Size  Location     Type
  5207 ;;  i               1   18[COMRAM] unsigned char 
  5208 ;; Return value:  Size  Location     Type
  5209 ;;                  1    wreg      void 
  5210 ;; Registers used:
  5211 ;;		wreg, fsr2l, fsr2h, status,2, status,0, cstack
  5212 ;; Tracked objects:
  5213 ;;		On entry : 0/0
  5214 ;;		On exit  : 0/0
  5215 ;;		Unchanged: 0/0
  5216 ;; Data sizes:     COMRAM   BANK0   BANK1   BANK2   BANK3   BANK4   BANK5
  5217 ;;      Params:         0       0       0       0       0       0       0
  5218 ;;      Locals:         1       0       0       0       0       0       0
  5219 ;;      Temps:          0       0       0       0       0       0       0
  5220 ;;      Totals:         1       0       0       0       0       0       0
  5221 ;;Total ram usage:        1 bytes
  5222 ;; Hardware stack levels used: 1
  5223 ;; Hardware stack levels required when called: 6
  5224 ;; This function calls:
  5225 ;;		_TLC5917Init
  5226 ;; This function is called by:
  5227 ;;		_DeviceInit
  5228 ;; This function uses a non-reentrant model
  5229 ;;
  5230                           
  5231                           	psect	text24
  5232   002642                     __ptext24:
  5233                           	callstack 0
  5234   002642                     _OpenDisplay:
  5235                           	callstack 23
  5236   002642                     
  5237                           ;Display.c: 12:     TRISCbits.TRISC2 = 0;
  5238   002642  9494               	bcf	148,2,c	;volatile
  5239                           
  5240                           ;Display.c: 13:     TRISCbits.TRISC1 = 0;
  5241   002644  9294               	bcf	148,1,c	;volatile
  5242                           
  5243                           ;Display.c: 14:     TRISCbits.TRISC0 = 0;
  5244   002646  9094               	bcf	148,0,c	;volatile
  5245                           
  5246                           ;Display.c: 15:     TRISCbits.TRISC5 = 0;
  5247   002648  9A94               	bcf	148,5,c	;volatile
  5248                           
  5249                           ;Display.c: 16:     TRISBbits.TRISB1 = 0;
  5250   00264A  9293               	bcf	147,1,c	;volatile
  5251                           
  5252                           ;Display.c: 17:     TRISBbits.TRISB5 = 0;
  5253   00264C  9A93               	bcf	147,5,c	;volatile
  5254                           
  5255                           ;Display.c: 18:     TRISDbits.TRISD7 = 0;
  5256   00264E  9E95               	bcf	149,7,c	;volatile
  5257                           
  5258                           ;Display.c: 19:     TRISBbits.TRISB0 = 0;
  5259   002650  9093               	bcf	147,0,c	;volatile
  5260                           
  5261                           ;Display.c: 21:     LATCbits.LATC2 = LATCbits.LATC1 = LATCbits.LATC0 = LATCbits.LATC5 = 
      +                          LATBbits.LATB1 = LATBbits.LATB5 = LATDbits.LATD7 = LATBbits.LATB0 = 1;
  5262   002652  808A               	bsf	138,0,c	;volatile
  5263   002654  8E8C               	bsf	140,7,c	;volatile
  5264   002656  8A8A               	bsf	138,5,c	;volatile
  5265   002658  828A               	bsf	138,1,c	;volatile
  5266   00265A  8A8B               	bsf	139,5,c	;volatile
  5267   00265C  808B               	bsf	139,0,c	;volatile
  5268   00265E  828B               	bsf	139,1,c	;volatile
  5269   002660  848B               	bsf	139,2,c	;volatile
  5270   002662                     
  5271                           ;Display.c: 24:     TLC5917Init();
  5272   002662  ECF6  F014         	call	_TLC5917Init	;wreg free
  5273   002666                     
  5274                           ;Display.c: 26:     for( unsigned char i = 0; i < 7 + 1; i++ ){
  5275   002666  0E00               	movlw	0
  5276   002668  6E5F               	movwf	OpenDisplay@i^0,c
  5277   00266A                     l6491:
  5278                           
  5279                           ;Display.c: 27:         blink_pos[ i ] = 0;
  5280   00266A  0E80               	movlw	low _blink_pos
  5281   00266C  245F               	addwf	OpenDisplay@i^0,w,c
  5282   00266E  6ED9               	movwf	fsr2l,c
  5283   002670  6ADA               	clrf	fsr2h,c
  5284   002672  0E00               	movlw	high _blink_pos
  5285   002674  22DA               	addwfc	fsr2h,f,c
  5286   002676  6ADF               	clrf	indf2,c
  5287                           
  5288                           ;Display.c: 28:         display_datas[ i ] = 0x00;
  5289   002678  0E88               	movlw	low _display_datas
  5290   00267A  245F               	addwf	OpenDisplay@i^0,w,c
  5291   00267C  6ED9               	movwf	fsr2l,c
  5292   00267E  6ADA               	clrf	fsr2h,c
  5293   002680  0E00               	movlw	high _display_datas
  5294   002682  22DA               	addwfc	fsr2h,f,c
  5295   002684  6ADF               	clrf	indf2,c
  5296   002686                     
  5297                           ;Display.c: 29:     }
  5298   002686  2A5F               	incf	OpenDisplay@i^0,f,c
  5299   002688  0E07               	movlw	7
  5300   00268A  645F               	cpfsgt	OpenDisplay@i^0,c
  5301   00268C  EF4A  F013         	goto	u4181
  5302   002690  EF4C  F013         	goto	u4180
  5303   002694                     u4181:
  5304   002694  EF35  F013         	goto	l6491
  5305   002698                     u4180:
  5306   002698                     
  5307                           ;Display.c: 30:     display_datas[6] = 0xff;
  5308   002698  0100               	movlb	0	; () banked
  5309   00269A  698E               	setf	(_display_datas+6)& (0+255),b
  5310   00269C                     
  5311                           ; BSR set to: 0
  5312                           ;Display.c: 32:     display_cnt = 0; blink_cnt = 0; blink_enable_flg = 0;
  5313   00269C  0E00               	movlw	0
  5314   00269E  6E31               	movwf	_display_cnt^0,c
  5315   0026A0  0E00               	movlw	0
  5316   0026A2  6E30               	movwf	_blink_cnt^0,c
  5317   0026A4  0E00               	movlw	0
  5318   0026A6  6E32               	movwf	_blink_enable_flg^0,c
  5319                           
  5320                           ;Display.c: 33:     BLINK_TIME = 300;
  5321   0026A8  0E01               	movlw	1
  5322   0026AA  6E17               	movwf	(_BLINK_TIME+1)^0,c
  5323   0026AC  0E2C               	movlw	44
  5324   0026AE  6E16               	movwf	_BLINK_TIME^0,c
  5325   0026B0                     
  5326                           ; BSR set to: 0
  5327   0026B0  0012               	return		;funcret
  5328   0026B2                     __end_of_OpenDisplay:
  5329                           	callstack 0
  5330                           
  5331 ;; *************** function _TLC5917Init *****************
  5332 ;; Defined at:
  5333 ;;		line 10 in file "TLC5917.c"
  5334 ;; Parameters:    Size  Location     Type
  5335 ;;		None
  5336 ;; Auto vars:     Size  Location     Type
  5337 ;;		None
  5338 ;; Return value:  Size  Location     Type
  5339 ;;                  1    wreg      void 
  5340 ;; Registers used:
  5341 ;;		None
  5342 ;; Tracked objects:
  5343 ;;		On entry : 0/0
  5344 ;;		On exit  : 0/0
  5345 ;;		Unchanged: 0/0
  5346 ;; Data sizes:     COMRAM   BANK0   BANK1   BANK2   BANK3   BANK4   BANK5
  5347 ;;      Params:         0       0       0       0       0       0       0
  5348 ;;      Locals:         0       0       0       0       0       0       0
  5349 ;;      Temps:          0       0       0       0       0       0       0
  5350 ;;      Totals:         0       0       0       0       0       0       0
  5351 ;;Total ram usage:        0 bytes
  5352 ;; Hardware stack levels used: 1
  5353 ;; Hardware stack levels required when called: 5
  5354 ;; This function calls:
  5355 ;;		Nothing
  5356 ;; This function is called by:
  5357 ;;		_OpenDisplay
  5358 ;; This function uses a non-reentrant model
  5359 ;;
  5360                           
  5361                           	psect	text25
  5362   0029EC                     __ptext25:
  5363                           	callstack 0
  5364   0029EC                     _TLC5917Init:
  5365                           	callstack 23
  5366   0029EC                     
  5367                           ;TLC5917.c: 12:     TRISAbits.TRISA0 = 0;
  5368   0029EC  9092               	bcf	146,0,c	;volatile
  5369                           
  5370                           ;TLC5917.c: 13:     TRISAbits.TRISA1 = 0;
  5371   0029EE  9292               	bcf	146,1,c	;volatile
  5372                           
  5373                           ;TLC5917.c: 14:     TRISAbits.TRISA5 = 0;
  5374   0029F0  9A92               	bcf	146,5,c	;volatile
  5375                           
  5376                           ;TLC5917.c: 15:     TRISAbits.TRISA3 = 0;
  5377   0029F2  9692               	bcf	146,3,c	;volatile
  5378                           
  5379                           ;TLC5917.c: 17:     PORTAbits.RA3 = 1;
  5380   0029F4  8680               	bsf	128,3,c	;volatile
  5381                           
  5382                           ;TLC5917.c: 18:     PORTAbits.RA5 = 0;
  5383   0029F6  9A80               	bcf	128,5,c	;volatile
  5384                           
  5385                           ;TLC5917.c: 19:     PORTAbits.RA1 = 0;
  5386   0029F8  9280               	bcf	128,1,c	;volatile
  5387                           
  5388                           ;TLC5917.c: 20:     PORTAbits.RA0 = 0;
  5389   0029FA  9080               	bcf	128,0,c	;volatile
  5390   0029FC  0012               	return		;funcret
  5391   0029FE                     __end_of_TLC5917Init:
  5392                           	callstack 0
  5393                           
  5394 ;; *************** function _OpenCounter *****************
  5395 ;; Defined at:
  5396 ;;		line 6 in file "Counter.c"
  5397 ;; Parameters:    Size  Location     Type
  5398 ;;		None
  5399 ;; Auto vars:     Size  Location     Type
  5400 ;;		None
  5401 ;; Return value:  Size  Location     Type
  5402 ;;                  1    wreg      void 
  5403 ;; Registers used:
  5404 ;;		wreg, status,2
  5405 ;; Tracked objects:
  5406 ;;		On entry : 0/0
  5407 ;;		On exit  : 0/0
  5408 ;;		Unchanged: 0/0
  5409 ;; Data sizes:     COMRAM   BANK0   BANK1   BANK2   BANK3   BANK4   BANK5
  5410 ;;      Params:         0       0       0       0       0       0       0
  5411 ;;      Locals:         0       0       0       0       0       0       0
  5412 ;;      Temps:          0       0       0       0       0       0       0
  5413 ;;      Totals:         0       0       0       0       0       0       0
  5414 ;;Total ram usage:        0 bytes
  5415 ;; Hardware stack levels used: 1
  5416 ;; Hardware stack levels required when called: 5
  5417 ;; This function calls:
  5418 ;;		Nothing
  5419 ;; This function is called by:
  5420 ;;		_DeviceInit
  5421 ;; This function uses a non-reentrant model
  5422 ;;
  5423                           
  5424                           	psect	text26
  5425   002716                     __ptext26:
  5426                           	callstack 0
  5427   002716                     _OpenCounter:
  5428                           	callstack 24
  5429   002716                     
  5430                           ;Counter.c: 8:     counter_down_hour = 0;
  5431   002716  0E00               	movlw	0
  5432   002718  6E41               	movwf	_counter_down_hour^0,c
  5433                           
  5434                           ;Counter.c: 9:     counter_down_minute = 0;
  5435   00271A  0E00               	movlw	0
  5436   00271C  6E40               	movwf	_counter_down_minute^0,c
  5437                           
  5438                           ;Counter.c: 10:     counter_down_second = 0;
  5439   00271E  0E00               	movlw	0
  5440   002720  6E3F               	movwf	_counter_down_second^0,c
  5441                           
  5442                           ;Counter.c: 12:     counter_down_set_hour = 0;
  5443   002722  0E00               	movlw	0
  5444   002724  6E3E               	movwf	_counter_down_set_hour^0,c
  5445                           
  5446                           ;Counter.c: 13:     counter_down_set_minute = 0;
  5447   002726  0E00               	movlw	0
  5448   002728  6E3D               	movwf	_counter_down_set_minute^0,c
  5449                           
  5450                           ;Counter.c: 14:     counter_down_set_second = 0;
  5451   00272A  0E00               	movlw	0
  5452   00272C  6E3C               	movwf	_counter_down_set_second^0,c
  5453                           
  5454                           ;Counter.c: 16:     counter_up_hour = 0;
  5455   00272E  0E00               	movlw	0
  5456   002730  6E3B               	movwf	_counter_up_hour^0,c
  5457                           
  5458                           ;Counter.c: 17:     counter_up_minute = 0;
  5459   002732  0E00               	movlw	0
  5460   002734  6E3A               	movwf	_counter_up_minute^0,c
  5461                           
  5462                           ;Counter.c: 18:     counter_up_second = 0;
  5463   002736  0E00               	movlw	0
  5464   002738  6E39               	movwf	_counter_up_second^0,c
  5465                           
  5466                           ;Counter.c: 20:     counter_enable_flg = 0;
  5467   00273A  0E00               	movlw	0
  5468   00273C  6E38               	movwf	_counter_enable_flg^0,c
  5469                           
  5470                           ;Counter.c: 21:     counter_skip_flg = 0;
  5471   00273E  0E00               	movlw	0
  5472   002740  6E36               	movwf	_counter_skip_flg^0,c
  5473                           
  5474                           ;Counter.c: 22:     counter_direction_flg = 1;
  5475   002742  0E01               	movlw	1
  5476   002744  6E37               	movwf	_counter_direction_flg^0,c
  5477                           
  5478                           ;Counter.c: 23:     counter_seting_flg = 0;
  5479   002746  0E00               	movlw	0
  5480   002748  6E35               	movwf	_counter_seting_flg^0,c
  5481                           
  5482                           ;Counter.c: 24:     counter_down_comp_flg = 0;
  5483   00274A  0E00               	movlw	0
  5484   00274C  6E34               	movwf	_counter_down_comp_flg^0,c
  5485                           
  5486                           ;Counter.c: 26:     counter_down_comp_cnt = 0;
  5487   00274E  0E00               	movlw	0
  5488   002750  6E33               	movwf	_counter_down_comp_cnt^0,c
  5489   002752                     
  5490                           ;Counter.c: 28:     TRISBbits.TRISB2 = 1;
  5491   002752  8493               	bsf	147,2,c	;volatile
  5492   002754                     
  5493                           ;Counter.c: 29:     INTCON3bits.INT2IP = 0;
  5494   002754  9EF0               	bcf	240,7,c	;volatile
  5495   002756                     
  5496                           ;Counter.c: 30:     INTCON3bits.INT2IF = 0;
  5497   002756  92F0               	bcf	240,1,c	;volatile
  5498   002758                     
  5499                           ;Counter.c: 31:     INTCON3bits.INT2IE = 1;
  5500   002758  88F0               	bsf	240,4,c	;volatile
  5501   00275A                     
  5502                           ;Counter.c: 32:     INTCON2bits.INTEDG2 = 1;
  5503   00275A  88F1               	bsf	241,4,c	;volatile
  5504   00275C  0012               	return		;funcret
  5505   00275E                     __end_of_OpenCounter:
  5506                           	callstack 0
  5507                           
  5508 ;; *************** function _OpenButtons *****************
  5509 ;; Defined at:
  5510 ;;		line 10 in file "Buttons.c"
  5511 ;; Parameters:    Size  Location     Type
  5512 ;;		None
  5513 ;; Auto vars:     Size  Location     Type
  5514 ;;		None
  5515 ;; Return value:  Size  Location     Type
  5516 ;;                  1    wreg      void 
  5517 ;; Registers used:
  5518 ;;		wreg, status,2
  5519 ;; Tracked objects:
  5520 ;;		On entry : 0/0
  5521 ;;		On exit  : 0/0
  5522 ;;		Unchanged: 0/0
  5523 ;; Data sizes:     COMRAM   BANK0   BANK1   BANK2   BANK3   BANK4   BANK5
  5524 ;;      Params:         0       0       0       0       0       0       0
  5525 ;;      Locals:         0       0       0       0       0       0       0
  5526 ;;      Temps:          0       0       0       0       0       0       0
  5527 ;;      Totals:         0       0       0       0       0       0       0
  5528 ;;Total ram usage:        0 bytes
  5529 ;; Hardware stack levels used: 1
  5530 ;; Hardware stack levels required when called: 5
  5531 ;; This function calls:
  5532 ;;		Nothing
  5533 ;; This function is called by:
  5534 ;;		_DeviceInit
  5535 ;; This function uses a non-reentrant model
  5536 ;;
  5537                           
  5538                           	psect	text27
  5539   002550                     __ptext27:
  5540                           	callstack 0
  5541   002550                     _OpenButtons:
  5542                           	callstack 24
  5543   002550                     
  5544                           ;Buttons.c: 12:     TRISAbits.TRISA7 = 1;
  5545   002550  8E92               	bsf	146,7,c	;volatile
  5546                           
  5547                           ;Buttons.c: 13:     TRISAbits.TRISA4 = 1;
  5548   002552  8892               	bsf	146,4,c	;volatile
  5549                           
  5550                           ;Buttons.c: 14:     TRISAbits.TRISA6 = 1;
  5551   002554  8C92               	bsf	146,6,c	;volatile
  5552                           
  5553                           ;Buttons.c: 15:     TRISBbits.TRISB4 = 1;
  5554   002556  8893               	bsf	147,4,c	;volatile
  5555                           
  5556                           ;Buttons.c: 16:     TRISDbits.TRISD6 = 1;
  5557   002558  8C95               	bsf	149,6,c	;volatile
  5558   00255A                     
  5559                           ;Buttons.c: 18:     BTN_CLICK_STATE = 0; BTN_CLICK_EVENT = 0;
  5560   00255A  0E00               	movlw	0
  5561   00255C  6E2F               	movwf	_BTN_CLICK_STATE^0,c
  5562   00255E  0E00               	movlw	0
  5563   002560  6E2E               	movwf	_BTN_CLICK_EVENT^0,c
  5564                           
  5565                           ;Buttons.c: 20:     hour_btn_pressed_cnt = 0; up_btn_pressed_cnt = 0; down_btn_pressed_c
      +                          nt = 0; sel_btn_pressed_cnt = 0; reset_btn_pressed_cnt = 0;
  5566   002562  0E00               	movlw	0
  5567   002564  6E15               	movwf	(_hour_btn_pressed_cnt+1)^0,c
  5568   002566  0E00               	movlw	0
  5569   002568  6E14               	movwf	_hour_btn_pressed_cnt^0,c
  5570   00256A  0E00               	movlw	0
  5571   00256C  6E13               	movwf	(_up_btn_pressed_cnt+1)^0,c
  5572   00256E  0E00               	movlw	0
  5573   002570  6E12               	movwf	_up_btn_pressed_cnt^0,c
  5574   002572  0E00               	movlw	0
  5575   002574  6E11               	movwf	(_down_btn_pressed_cnt+1)^0,c
  5576   002576  0E00               	movlw	0
  5577   002578  6E10               	movwf	_down_btn_pressed_cnt^0,c
  5578   00257A  0E00               	movlw	0
  5579   00257C  6E0F               	movwf	(_sel_btn_pressed_cnt+1)^0,c
  5580   00257E  0E00               	movlw	0
  5581   002580  6E0E               	movwf	_sel_btn_pressed_cnt^0,c
  5582   002582  0E00               	movlw	0
  5583   002584  6E0D               	movwf	(_reset_btn_pressed_cnt+1)^0,c
  5584   002586  0E00               	movlw	0
  5585   002588  6E0C               	movwf	_reset_btn_pressed_cnt^0,c
  5586                           
  5587                           ;Buttons.c: 21:     hour_btn_released_cnt = 0; up_btn_released_cnt = 0; down_btn_release
      +                          d_cnt = 0; sel_btn_released_cnt = 0; reset_btn_released_cnt = 0;
  5588   00258A  0E00               	movlw	0
  5589   00258C  0100               	movlb	0	; () banked
  5590   00258E  6FC1               	movwf	(_hour_btn_released_cnt+1)& (0+255),b
  5591   002590  0E00               	movlw	0
  5592   002592  6FC0               	movwf	_hour_btn_released_cnt& (0+255),b
  5593   002594  0E00               	movlw	0
  5594   002596  6FBF               	movwf	(_up_btn_released_cnt+1)& (0+255),b
  5595   002598  0E00               	movlw	0
  5596   00259A  6FBE               	movwf	_up_btn_released_cnt& (0+255),b
  5597   00259C  0E00               	movlw	0
  5598   00259E  6FBD               	movwf	(_down_btn_released_cnt+1)& (0+255),b
  5599   0025A0  0E00               	movlw	0
  5600   0025A2  6FBC               	movwf	_down_btn_released_cnt& (0+255),b
  5601   0025A4  0E00               	movlw	0
  5602   0025A6  6FBB               	movwf	(_sel_btn_released_cnt+1)& (0+255),b
  5603   0025A8  0E00               	movlw	0
  5604   0025AA  6FBA               	movwf	_sel_btn_released_cnt& (0+255),b
  5605   0025AC  0E00               	movlw	0
  5606   0025AE  6FB9               	movwf	(_reset_btn_released_cnt+1)& (0+255),b
  5607   0025B0  0E00               	movlw	0
  5608   0025B2  6FB8               	movwf	_reset_btn_released_cnt& (0+255),b
  5609                           
  5610                           ;Buttons.c: 22:     continue_pressed_cnt = 0;
  5611   0025B4  0E00               	movlw	0
  5612   0025B6  6E0B               	movwf	(_continue_pressed_cnt+1)^0,c
  5613   0025B8  0E00               	movlw	0
  5614   0025BA  6E0A               	movwf	_continue_pressed_cnt^0,c
  5615                           
  5616                           ;Buttons.c: 24:     btn_press_verify_flg = 0; btn_long_press_verify_flg = 0;
  5617   0025BC  0E00               	movlw	0
  5618   0025BE  6E2D               	movwf	_btn_press_verify_flg^0,c
  5619   0025C0  0E00               	movlw	0
  5620   0025C2  6E2C               	movwf	_btn_long_press_verify_flg^0,c
  5621                           
  5622                           ;Buttons.c: 25:     CONTINUE_PRESSED_TIME = 100;
  5623   0025C4  0E00               	movlw	0
  5624   0025C6  6E09               	movwf	(_CONTINUE_PRESSED_TIME+1)^0,c
  5625   0025C8  0E64               	movlw	100
  5626   0025CA  6E08               	movwf	_CONTINUE_PRESSED_TIME^0,c
  5627   0025CC                     
  5628                           ; BSR set to: 0
  5629   0025CC  0012               	return		;funcret
  5630   0025CE                     __end_of_OpenButtons:
  5631                           	callstack 0
  5632                           
  5633 ;; *************** function _Open1USART *****************
  5634 ;; Defined at:
  5635 ;;		line 4 in file "Uart.c"
  5636 ;; Parameters:    Size  Location     Type
  5637 ;;  config          1    wreg     unsigned char 
  5638 ;;  spbrg           2   18[COMRAM] unsigned int 
  5639 ;; Auto vars:     Size  Location     Type
  5640 ;;  config          1   20[COMRAM] unsigned char 
  5641 ;; Return value:  Size  Location     Type
  5642 ;;                  1    wreg      void 
  5643 ;; Registers used:
  5644 ;;		wreg, status,2
  5645 ;; Tracked objects:
  5646 ;;		On entry : 0/0
  5647 ;;		On exit  : 0/0
  5648 ;;		Unchanged: 0/0
  5649 ;; Data sizes:     COMRAM   BANK0   BANK1   BANK2   BANK3   BANK4   BANK5
  5650 ;;      Params:         2       0       0       0       0       0       0
  5651 ;;      Locals:         1       0       0       0       0       0       0
  5652 ;;      Temps:          0       0       0       0       0       0       0
  5653 ;;      Totals:         3       0       0       0       0       0       0
  5654 ;;Total ram usage:        3 bytes
  5655 ;; Hardware stack levels used: 1
  5656 ;; Hardware stack levels required when called: 5
  5657 ;; This function calls:
  5658 ;;		Nothing
  5659 ;; This function is called by:
  5660 ;;		_DeviceInit
  5661 ;; This function uses a non-reentrant model
  5662 ;;
  5663                           
  5664                           	psect	text28
  5665   0021AC                     __ptext28:
  5666                           	callstack 0
  5667   0021AC                     _Open1USART:
  5668                           	callstack 24
  5669                           
  5670                           ; BSR set to: 0
  5671                           ;incstack = 0
  5672                           ;Open1USART@config stored from wreg
  5673   0021AC  6E61               	movwf	Open1USART@config^0,c
  5674   0021AE                     
  5675                           ;Uart.c: 5:     TXSTA1 = 0;
  5676   0021AE  0E00               	movlw	0
  5677   0021B0  6EAC               	movwf	172,c	;volatile
  5678                           
  5679                           ;Uart.c: 6:     RCSTA1 = 0;
  5680   0021B2  0E00               	movlw	0
  5681   0021B4  6EAB               	movwf	171,c	;volatile
  5682   0021B6                     
  5683                           ;Uart.c: 8:     if(config&0x01)
  5684   0021B6  A061               	btfss	Open1USART@config^0,0,c
  5685   0021B8  EFE0  F010         	goto	u4241
  5686   0021BC  EFE2  F010         	goto	u4240
  5687   0021C0                     u4241:
  5688   0021C0  EFE3  F010         	goto	l6527
  5689   0021C4                     u4240:
  5690   0021C4                     
  5691                           ;Uart.c: 9:         TXSTA1bits.SYNC = 1;
  5692   0021C4  88AC               	bsf	172,4,c	;volatile
  5693   0021C6                     l6527:
  5694                           
  5695                           ;Uart.c: 11:     if(config&0x02)
  5696   0021C6  A261               	btfss	Open1USART@config^0,1,c
  5697   0021C8  EFE8  F010         	goto	u4251
  5698   0021CC  EFEA  F010         	goto	u4250
  5699   0021D0                     u4251:
  5700   0021D0  EFEC  F010         	goto	l6531
  5701   0021D4                     u4250:
  5702   0021D4                     
  5703                           ;Uart.c: 12:     {;Uart.c: 13:         TXSTA1bits.TX9 = 1;
  5704   0021D4  8CAC               	bsf	172,6,c	;volatile
  5705                           
  5706                           ;Uart.c: 14:         RCSTA1bits.RX9 = 1;
  5707   0021D6  8CAB               	bsf	171,6,c	;volatile
  5708   0021D8                     l6531:
  5709                           
  5710                           ;Uart.c: 17:     if(config&0x04)
  5711   0021D8  A461               	btfss	Open1USART@config^0,2,c
  5712   0021DA  EFF1  F010         	goto	u4261
  5713   0021DE  EFF3  F010         	goto	u4260
  5714   0021E2                     u4261:
  5715   0021E2  EFF4  F010         	goto	l6535
  5716   0021E6                     u4260:
  5717   0021E6                     
  5718                           ;Uart.c: 18:         TXSTA1bits.CSRC = 1;
  5719   0021E6  8EAC               	bsf	172,7,c	;volatile
  5720   0021E8                     l6535:
  5721                           
  5722                           ;Uart.c: 20:     if(config&0x08)
  5723   0021E8  A661               	btfss	Open1USART@config^0,3,c
  5724   0021EA  EFF9  F010         	goto	u4271
  5725   0021EE  EFFB  F010         	goto	u4270
  5726   0021F2                     u4271:
  5727   0021F2  EFFE  F010         	goto	l1768
  5728   0021F6                     u4270:
  5729   0021F6                     
  5730                           ;Uart.c: 21:         RCSTA1bits.CREN = 1;
  5731   0021F6  88AB               	bsf	171,4,c	;volatile
  5732   0021F8  EFFF  F010         	goto	l6539
  5733   0021FC                     l1768:
  5734                           
  5735                           ;Uart.c: 23:         RCSTA1bits.SREN = 1;
  5736   0021FC  8AAB               	bsf	171,5,c	;volatile
  5737   0021FE                     l6539:
  5738                           
  5739                           ;Uart.c: 25:     if(config&0x10)
  5740   0021FE  A861               	btfss	Open1USART@config^0,4,c
  5741   002200  EF04  F011         	goto	u4281
  5742   002204  EF06  F011         	goto	u4280
  5743   002208                     u4281:
  5744   002208  EF09  F011         	goto	l1770
  5745   00220C                     u4280:
  5746   00220C                     
  5747                           ;Uart.c: 26:         TXSTA1bits.BRGH = 1;
  5748   00220C  84AC               	bsf	172,2,c	;volatile
  5749   00220E  EF0A  F011         	goto	l6543
  5750   002212                     l1770:
  5751                           
  5752                           ;Uart.c: 28:         TXSTA1bits.BRGH = 0;
  5753   002212  94AC               	bcf	172,2,c	;volatile
  5754   002214                     l6543:
  5755                           
  5756                           ;Uart.c: 30:     if(config&0x40)
  5757   002214  AC61               	btfss	Open1USART@config^0,6,c
  5758   002216  EF0F  F011         	goto	u4291
  5759   00221A  EF11  F011         	goto	u4290
  5760   00221E                     u4291:
  5761   00221E  EF14  F011         	goto	l1772
  5762   002222                     u4290:
  5763   002222                     
  5764                           ;Uart.c: 31:         PIE1bits.RC1IE = 1;
  5765   002222  8A9D               	bsf	157,5,c	;volatile
  5766   002224  EF15  F011         	goto	l6547
  5767   002228                     l1772:
  5768                           
  5769                           ;Uart.c: 33:         PIE1bits.RC1IE = 0;
  5770   002228  9A9D               	bcf	157,5,c	;volatile
  5771   00222A                     l6547:
  5772                           
  5773                           ;Uart.c: 35:     if(config&0x80)
  5774   00222A  AE61               	btfss	Open1USART@config^0,7,c
  5775   00222C  EF1A  F011         	goto	u4301
  5776   002230  EF1C  F011         	goto	u4300
  5777   002234                     u4301:
  5778   002234  EF1F  F011         	goto	l1774
  5779   002238                     u4300:
  5780   002238                     
  5781                           ;Uart.c: 36:         PIE1bits.TX1IE = 1;
  5782   002238  889D               	bsf	157,4,c	;volatile
  5783   00223A  EF20  F011         	goto	l1775
  5784   00223E                     l1774:
  5785                           
  5786                           ;Uart.c: 38:         PIE1bits.TX1IE = 0;
  5787   00223E  989D               	bcf	157,4,c	;volatile
  5788   002240                     l1775:
  5789                           
  5790                           ;Uart.c: 40:     SPBRG1 = spbrg;
  5791   002240  C05F  FFAF         	movff	Open1USART@spbrg,4015	;volatile
  5792                           
  5793                           ;Uart.c: 42:     TXSTA1bits.TXEN = 1;
  5794   002244  8AAC               	bsf	172,5,c	;volatile
  5795                           
  5796                           ;Uart.c: 43:     RCSTA1bits.SPEN = 1;
  5797   002246  8EAB               	bsf	171,7,c	;volatile
  5798                           
  5799                           ;Uart.c: 44:     TRISCbits.TRISC6 = 0; TRISCbits.TRISC7 = 1;
  5800   002248  9C94               	bcf	148,6,c	;volatile
  5801   00224A  8E94               	bsf	148,7,c	;volatile
  5802                           
  5803                           ;Uart.c: 45:     if(TXSTA1bits.SYNC && !TXSTA1bits.CSRC)
  5804   00224C  A8AC               	btfss	172,4,c	;volatile
  5805   00224E  EF2B  F011         	goto	u4311
  5806   002252  EF2D  F011         	goto	u4310
  5807   002256                     u4311:
  5808   002256  EF35  F011         	goto	l1777
  5809   00225A                     u4310:
  5810   00225A  BEAC               	btfsc	172,7,c	;volatile
  5811   00225C  EF32  F011         	goto	u4321
  5812   002260  EF34  F011         	goto	u4320
  5813   002264                     u4321:
  5814   002264  EF35  F011         	goto	l1777
  5815   002268                     u4320:
  5816   002268                     
  5817                           ;Uart.c: 46:         TRISCbits.TRISC6 = 1;
  5818   002268  8C94               	bsf	148,6,c	;volatile
  5819   00226A                     l1777:
  5820   00226A  0012               	return		;funcret
  5821   00226C                     __end_of_Open1USART:
  5822                           	callstack 0
  5823                           
  5824 ;; *************** function _InitValue *****************
  5825 ;; Defined at:
  5826 ;;		line 150 in file "Main.c"
  5827 ;; Parameters:    Size  Location     Type
  5828 ;;		None
  5829 ;; Auto vars:     Size  Location     Type
  5830 ;;		None
  5831 ;; Return value:  Size  Location     Type
  5832 ;;                  1    wreg      void 
  5833 ;; Registers used:
  5834 ;;		wreg, fsr1l, fsr1h, fsr2l, fsr2h, status,2, status,0, cstack
  5835 ;; Tracked objects:
  5836 ;;		On entry : 0/0
  5837 ;;		On exit  : 0/0
  5838 ;;		Unchanged: 0/0
  5839 ;; Data sizes:     COMRAM   BANK0   BANK1   BANK2   BANK3   BANK4   BANK5
  5840 ;;      Params:         0       0       0       0       0       0       0
  5841 ;;      Locals:         0       0       0       0       0       0       0
  5842 ;;      Temps:          0       0       0       0       0       0       0
  5843 ;;      Totals:         0       0       0       0       0       0       0
  5844 ;;Total ram usage:        0 bytes
  5845 ;; Hardware stack levels used: 1
  5846 ;; Hardware stack levels required when called: 9
  5847 ;; This function calls:
  5848 ;;		_Ds1307HMSRead
  5849 ;;		_Ds1307Write
  5850 ;;		_UpdateDisplay
  5851 ;; This function is called by:
  5852 ;;		_DeviceInit
  5853 ;; This function uses a non-reentrant model
  5854 ;;
  5855                           
  5856                           	psect	text29
  5857   00243C                     __ptext29:
  5858                           	callstack 0
  5859   00243C                     _InitValue:
  5860                           	callstack 20
  5861   00243C                     
  5862                           ;Main.c: 151:     if( SYSTEM_STATE_FLG == 100 ){
  5863   00243C  0E64               	movlw	100
  5864   00243E  1848               	xorwf	_SYSTEM_STATE_FLG^0,w,c
  5865   002440  A4D8               	btfss	status,2,c
  5866   002442  EF25  F012         	goto	u7131
  5867   002446  EF27  F012         	goto	u7130
  5868   00244A                     u7131:
  5869   00244A  EF56  F012         	goto	l9531
  5870   00244E                     u7130:
  5871   00244E                     
  5872                           ;Main.c: 152:         blink_enable_flg = 1;
  5873   00244E  0E01               	movlw	1
  5874   002450  6E32               	movwf	_blink_enable_flg^0,c
  5875   002452                     
  5876                           ;Main.c: 153:         UpdateDisplay( Ds1307HMSRead(), 1, 6 );
  5877   002452  EC44  F00F         	call	_Ds1307HMSRead	;wreg free
  5878   002456  C061  F132         	movff	?_Ds1307HMSRead,UpdateDisplay@update_datas
  5879   00245A  C062  F133         	movff	?_Ds1307HMSRead+1,UpdateDisplay@update_datas+1
  5880   00245E  0E01               	movlw	1
  5881   002460  0101               	movlb	1	; () banked
  5882   002462  6F34               	movwf	UpdateDisplay@start_position& (0+255),b
  5883   002464  0E06               	movlw	6
  5884   002466  6F35               	movwf	UpdateDisplay@end_position& (0+255),b
  5885   002468  ECD2  F013         	call	_UpdateDisplay	;wreg free
  5886   00246C                     
  5887                           ;Main.c: 154:         if( real_rtc_data[ 2 ] == 0 && real_rtc_data[ 1 ] == 0 && real_rtc
      +                          _data[ 0 ] == 0 ) Ds1307Write( &rtc_default_values );
  5888   00246C  5003               	movf	(_real_rtc_data+2)^0,w,c
  5889   00246E  A4D8               	btfss	status,2,c
  5890   002470  EF3C  F012         	goto	u7141
  5891   002474  EF3E  F012         	goto	u7140
  5892   002478                     u7141:
  5893   002478  EF63  F012         	goto	l388
  5894   00247C                     u7140:
  5895   00247C  5002               	movf	(_real_rtc_data+1)^0,w,c
  5896   00247E  A4D8               	btfss	status,2,c
  5897   002480  EF44  F012         	goto	u7151
  5898   002484  EF46  F012         	goto	u7150
  5899   002488                     u7151:
  5900   002488  EF63  F012         	goto	l388
  5901   00248C                     u7150:
  5902   00248C  5001               	movf	_real_rtc_data^0,w,c
  5903   00248E  A4D8               	btfss	status,2,c
  5904   002490  EF4C  F012         	goto	u7161
  5905   002494  EF4E  F012         	goto	u7160
  5906   002498                     u7161:
  5907   002498  EF63  F012         	goto	l388
  5908   00249C                     u7160:
  5909   00249C  0E0C               	movlw	low _rtc_default_values
  5910   00249E  6E60               	movwf	Ds1307Write@write_datas^0,c
  5911   0024A0  0E01               	movlw	high _rtc_default_values
  5912   0024A2  6E61               	movwf	(Ds1307Write@write_datas+1)^0,c
  5913   0024A4  EC44  F00D         	call	_Ds1307Write	;wreg free
  5914   0024A8  EF63  F012         	goto	l388
  5915   0024AC                     l9531:
  5916   0024AC  0EC9               	movlw	201
  5917   0024AE  1848               	xorwf	_SYSTEM_STATE_FLG^0,w,c
  5918   0024B0  A4D8               	btfss	status,2,c
  5919   0024B2  EF5D  F012         	goto	u7171
  5920   0024B6  EF5F  F012         	goto	u7170
  5921   0024BA                     u7171:
  5922   0024BA  EF63  F012         	goto	l388
  5923   0024BE                     u7170:
  5924   0024BE                     
  5925                           ;Main.c: 157:         counter_enable_flg = 0; counter_skip_flg = 0;
  5926   0024BE  0E00               	movlw	0
  5927   0024C0  6E38               	movwf	_counter_enable_flg^0,c
  5928   0024C2  0E00               	movlw	0
  5929   0024C4  6E36               	movwf	_counter_skip_flg^0,c
  5930   0024C6                     l388:
  5931   0024C6  0012               	return		;funcret
  5932   0024C8                     __end_of_InitValue:
  5933                           	callstack 0
  5934                           
  5935 ;; *************** function _UpdateDisplay *****************
  5936 ;; Defined at:
  5937 ;;		line 66 in file "Display.c"
  5938 ;; Parameters:    Size  Location     Type
  5939 ;;  update_datas    2   10[BANK1 ] PTR unsigned char 
  5940 ;;		 -> ReadCounter@counter_datas(6), Ds1307HMSRead@ds1307_date_datas(3), 
  5941 ;;  start_positi    1   12[BANK1 ] unsigned char 
  5942 ;;  end_position    1   13[BANK1 ] unsigned char 
  5943 ;; Auto vars:     Size  Location     Type
  5944 ;;  i               1   14[BANK1 ] unsigned char 
  5945 ;; Return value:  Size  Location     Type
  5946 ;;                  1    wreg      void 
  5947 ;; Registers used:
  5948 ;;		wreg, fsr1l, fsr1h, fsr2l, fsr2h, status,2, status,0, cstack
  5949 ;; Tracked objects:
  5950 ;;		On entry : 0/0
  5951 ;;		On exit  : 0/0
  5952 ;;		Unchanged: 0/0
  5953 ;; Data sizes:     COMRAM   BANK0   BANK1   BANK2   BANK3   BANK4   BANK5
  5954 ;;      Params:         0       0       4       0       0       0       0
  5955 ;;      Locals:         0       0       1       0       0       0       0
  5956 ;;      Temps:          0       0       0       0       0       0       0
  5957 ;;      Totals:         0       0       5       0       0       0       0
  5958 ;;Total ram usage:        5 bytes
  5959 ;; Hardware stack levels used: 1
  5960 ;; Hardware stack levels required when called: 6
  5961 ;; This function calls:
  5962 ;;		_MarkDisplay
  5963 ;; This function is called by:
  5964 ;;		_main
  5965 ;;		_InitValue
  5966 ;; This function uses a non-reentrant model
  5967 ;;
  5968                           
  5969                           	psect	text30
  5970   0027A4                     __ptext30:
  5971                           	callstack 0
  5972   0027A4                     _UpdateDisplay:
  5973                           	callstack 24
  5974   0027A4                     
  5975                           ;Display.c: 68:     for( unsigned char i = start_position - 1; i < end_position; i ++ ) 
      +                          {
  5976   0027A4  0101               	movlb	1	; () banked
  5977   0027A6  0534               	decf	UpdateDisplay@start_position& (0+255),w,b
  5978   0027A8  6F36               	movwf	UpdateDisplay@i& (0+255),b
  5979   0027AA  EFE9  F013         	goto	l9443
  5980   0027AE                     l9439:
  5981                           
  5982                           ; BSR set to: 1
  5983                           ;Display.c: 69:         display_datas[ i ] = MarkDisplay( update_datas[ i ] );
  5984   0027AE  0E88               	movlw	low _display_datas
  5985   0027B0  2536               	addwf	UpdateDisplay@i& (0+255),w,b
  5986   0027B2  6ED9               	movwf	fsr2l,c
  5987   0027B4  6ADA               	clrf	fsr2h,c
  5988   0027B6  0E00               	movlw	high _display_datas
  5989   0027B8  22DA               	addwfc	fsr2h,f,c
  5990   0027BA  5136               	movf	UpdateDisplay@i& (0+255),w,b
  5991   0027BC  2532               	addwf	UpdateDisplay@update_datas& (0+255),w,b
  5992   0027BE  6EE1               	movwf	fsr1l,c
  5993   0027C0  0E00               	movlw	0
  5994   0027C2  2133               	addwfc	(UpdateDisplay@update_datas+1)& (0+255),w,b
  5995   0027C4  6EE2               	movwf	fsr1h,c
  5996   0027C6  50E7               	movf	indf1,w,c
  5997   0027C8  EC6B  F008         	call	_MarkDisplay
  5998   0027CC  6EDF               	movwf	indf2,c
  5999   0027CE                     
  6000                           ;Display.c: 70:     }
  6001   0027CE  0101               	movlb	1	; () banked
  6002   0027D0  2B36               	incf	UpdateDisplay@i& (0+255),f,b
  6003   0027D2                     l9443:
  6004                           
  6005                           ; BSR set to: 1
  6006   0027D2  5135               	movf	UpdateDisplay@end_position& (0+255),w,b
  6007   0027D4  5D36               	subwf	UpdateDisplay@i& (0+255),w,b
  6008   0027D6  A0D8               	btfss	status,0,c
  6009   0027D8  EFF0  F013         	goto	u7011
  6010   0027DC  EFF2  F013         	goto	u7010
  6011   0027E0                     u7011:
  6012   0027E0  EFD7  F013         	goto	l9439
  6013   0027E4                     u7010:
  6014   0027E4                     
  6015                           ; BSR set to: 1
  6016   0027E4  0012               	return		;funcret
  6017   0027E6                     __end_of_UpdateDisplay:
  6018                           	callstack 0
  6019                           
  6020 ;; *************** function _MarkDisplay *****************
  6021 ;; Defined at:
  6022 ;;		line 73 in file "Display.c"
  6023 ;; Parameters:    Size  Location     Type
  6024 ;;  mark            1    wreg     unsigned char 
  6025 ;; Auto vars:     Size  Location     Type
  6026 ;;  mark            1   20[COMRAM] unsigned char 
  6027 ;; Return value:  Size  Location     Type
  6028 ;;                  1    wreg      unsigned char 
  6029 ;; Registers used:
  6030 ;;		wreg, status,2, status,0
  6031 ;; Tracked objects:
  6032 ;;		On entry : 0/0
  6033 ;;		On exit  : 0/0
  6034 ;;		Unchanged: 0/0
  6035 ;; Data sizes:     COMRAM   BANK0   BANK1   BANK2   BANK3   BANK4   BANK5
  6036 ;;      Params:         0       0       0       0       0       0       0
  6037 ;;      Locals:         1       0       0       0       0       0       0
  6038 ;;      Temps:          2       0       0       0       0       0       0
  6039 ;;      Totals:         3       0       0       0       0       0       0
  6040 ;;Total ram usage:        3 bytes
  6041 ;; Hardware stack levels used: 1
  6042 ;; Hardware stack levels required when called: 5
  6043 ;; This function calls:
  6044 ;;		Nothing
  6045 ;; This function is called by:
  6046 ;;		_UpdateDisplay
  6047 ;; This function uses a non-reentrant model
  6048 ;;
  6049                           
  6050                           	psect	text31
  6051   0010D6                     __ptext31:
  6052                           	callstack 0
  6053   0010D6                     _MarkDisplay:
  6054                           	callstack 24
  6055                           
  6056                           ; BSR set to: 1
  6057                           ;incstack = 0
  6058                           ;MarkDisplay@mark stored from wreg
  6059   0010D6  6E61               	movwf	MarkDisplay@mark^0,c
  6060   0010D8                     
  6061                           ;Display.c: 75:     switch( mark ){
  6062   0010D8  EFCE  F008         	goto	l9287
  6063   0010DC                     l9129:
  6064   0010DC  0E3F               	movlw	63
  6065   0010DE  EF77  F009         	goto	l930
  6066   0010E2                     l9133:
  6067   0010E2  0E06               	movlw	6
  6068   0010E4  EF77  F009         	goto	l930
  6069   0010E8                     l9137:
  6070   0010E8  0E5B               	movlw	91
  6071   0010EA  EF77  F009         	goto	l930
  6072   0010EE                     l9141:
  6073   0010EE  0E4F               	movlw	79
  6074   0010F0  EF77  F009         	goto	l930
  6075   0010F4                     l9145:
  6076   0010F4  0E66               	movlw	102
  6077   0010F6  EF77  F009         	goto	l930
  6078   0010FA                     l9149:
  6079   0010FA  0E6D               	movlw	109
  6080   0010FC  EF77  F009         	goto	l930
  6081   001100                     l9153:
  6082   001100  0E7D               	movlw	125
  6083   001102  EF77  F009         	goto	l930
  6084   001106                     l9157:
  6085   001106  0E07               	movlw	7
  6086   001108  EF77  F009         	goto	l930
  6087   00110C                     l9161:
  6088   00110C  0E7F               	movlw	127
  6089   00110E  EF77  F009         	goto	l930
  6090   001112                     l9165:
  6091   001112  0E6F               	movlw	111
  6092   001114  EF77  F009         	goto	l930
  6093   001118                     l9169:
  6094   001118  0E77               	movlw	119
  6095   00111A  EF77  F009         	goto	l930
  6096   00111E                     l9173:
  6097   00111E  0E5F               	movlw	95
  6098   001120  EF77  F009         	goto	l930
  6099   001124                     l9181:
  6100   001124  0E7C               	movlw	124
  6101   001126  EF77  F009         	goto	l930
  6102   00112A                     l9185:
  6103   00112A  0E39               	movlw	57
  6104   00112C  EF77  F009         	goto	l930
  6105   001130                     l9189:
  6106   001130  0E58               	movlw	88
  6107   001132  EF77  F009         	goto	l930
  6108   001136                     l9197:
  6109   001136  0E5E               	movlw	94
  6110   001138  EF77  F009         	goto	l930
  6111   00113C                     l9201:
  6112   00113C  0E79               	movlw	121
  6113   00113E  EF77  F009         	goto	l930
  6114   001142                     l9205:
  6115   001142  0E7B               	movlw	123
  6116   001144  EF77  F009         	goto	l930
  6117   001148                     l9209:
  6118   001148  0E71               	movlw	113
  6119   00114A  EF77  F009         	goto	l930
  6120   00114E                     l9221:
  6121   00114E  0E76               	movlw	118
  6122   001150  EF77  F009         	goto	l930
  6123   001154                     l9225:
  6124   001154  0E74               	movlw	116
  6125   001156  EF77  F009         	goto	l930
  6126   00115A                     l9233:
  6127   00115A  0E0E               	movlw	14
  6128   00115C  EF77  F009         	goto	l930
  6129   001160                     l9237:
  6130   001160  0E38               	movlw	56
  6131   001162  EF77  F009         	goto	l930
  6132   001166                     l9241:
  6133   001166  0E54               	movlw	84
  6134   001168  EF77  F009         	goto	l930
  6135   00116C                     l9249:
  6136   00116C  0E5C               	movlw	92
  6137   00116E  EF77  F009         	goto	l930
  6138   001172                     l9253:
  6139   001172  0E73               	movlw	115
  6140   001174  EF77  F009         	goto	l930
  6141   001178                     l9257:
  6142   001178  0E67               	movlw	103
  6143   00117A  EF77  F009         	goto	l930
  6144   00117E                     l9261:
  6145   00117E  0E50               	movlw	80
  6146   001180  EF77  F009         	goto	l930
  6147   001184                     l9269:
  6148   001184  0E78               	movlw	120
  6149   001186  EF77  F009         	goto	l930
  6150   00118A                     l9273:
  6151   00118A  0E3E               	movlw	62
  6152   00118C  EF77  F009         	goto	l930
  6153   001190                     l9277:
  6154   001190  0E6E               	movlw	110
  6155   001192  EF77  F009         	goto	l930
  6156   001196                     l9281:
  6157   001196  0E00               	movlw	0
  6158   001198  EF77  F009         	goto	l930
  6159   00119C                     l9287:
  6160   00119C  5061               	movf	MarkDisplay@mark^0,w,c
  6161   00119E  6E5F               	movwf	??_MarkDisplay^0,c
  6162   0011A0  6A60               	clrf	(??_MarkDisplay+1)^0,c
  6163                           
  6164                           ; Switch on 2 bytes has been partitioned into a top level switch of size 1, and 1 sub-sw
      +                          itches
  6165                           ; Switch size 1, requested type "simple"
  6166                           ; Number of cases is 1, Range of values is 0 to 0
  6167                           ; switch strategies available:
  6168                           ; Name         Instructions Cycles
  6169                           ; simple_byte            4     3 (average)
  6170                           ;	Chosen strategy is simple_byte
  6171   0011A2  5060               	movf	(??_MarkDisplay+1)^0,w,c
  6172   0011A4  0A00               	xorlw	0	; case 0
  6173   0011A6  B4D8               	btfsc	status,2,c
  6174   0011A8  EFD8  F008         	goto	l10649
  6175   0011AC  EF77  F009         	goto	l930
  6176   0011B0                     l10649:
  6177                           
  6178                           ; Switch size 1, requested type "simple"
  6179                           ; Number of cases is 39, Range of values is 0 to 255
  6180                           ; switch strategies available:
  6181                           ; Name         Instructions Cycles
  6182                           ; simple_byte          118    60 (average)
  6183                           ;	Chosen strategy is simple_byte
  6184   0011B0  505F               	movf	??_MarkDisplay^0,w,c
  6185   0011B2  0A00               	xorlw	0	; case 0
  6186   0011B4  B4D8               	btfsc	status,2,c
  6187   0011B6  EF6E  F008         	goto	l9129
  6188   0011BA  0A01               	xorlw	1	; case 1
  6189   0011BC  B4D8               	btfsc	status,2,c
  6190   0011BE  EF71  F008         	goto	l9133
  6191   0011C2  0A03               	xorlw	3	; case 2
  6192   0011C4  B4D8               	btfsc	status,2,c
  6193   0011C6  EF74  F008         	goto	l9137
  6194   0011CA  0A01               	xorlw	1	; case 3
  6195   0011CC  B4D8               	btfsc	status,2,c
  6196   0011CE  EF77  F008         	goto	l9141
  6197   0011D2  0A07               	xorlw	7	; case 4
  6198   0011D4  B4D8               	btfsc	status,2,c
  6199   0011D6  EF7A  F008         	goto	l9145
  6200   0011DA  0A01               	xorlw	1	; case 5
  6201   0011DC  B4D8               	btfsc	status,2,c
  6202   0011DE  EF7D  F008         	goto	l9149
  6203   0011E2  0A03               	xorlw	3	; case 6
  6204   0011E4  B4D8               	btfsc	status,2,c
  6205   0011E6  EF80  F008         	goto	l9153
  6206   0011EA  0A01               	xorlw	1	; case 7
  6207   0011EC  B4D8               	btfsc	status,2,c
  6208   0011EE  EF83  F008         	goto	l9157
  6209   0011F2  0A0F               	xorlw	15	; case 8
  6210   0011F4  B4D8               	btfsc	status,2,c
  6211   0011F6  EF86  F008         	goto	l9161
  6212   0011FA  0A01               	xorlw	1	; case 9
  6213   0011FC  B4D8               	btfsc	status,2,c
  6214   0011FE  EF89  F008         	goto	l9165
  6215   001202  0A48               	xorlw	72	; case 65
  6216   001204  B4D8               	btfsc	status,2,c
  6217   001206  EF8C  F008         	goto	l9169
  6218   00120A  0A03               	xorlw	3	; case 66
  6219   00120C  B4D8               	btfsc	status,2,c
  6220   00120E  EF86  F008         	goto	l9161
  6221   001212  0A01               	xorlw	1	; case 67
  6222   001214  B4D8               	btfsc	status,2,c
  6223   001216  EF95  F008         	goto	l9185
  6224   00121A  0A07               	xorlw	7	; case 68
  6225   00121C  B4D8               	btfsc	status,2,c
  6226   00121E  EF6E  F008         	goto	l9129
  6227   001222  0A01               	xorlw	1	; case 69
  6228   001224  B4D8               	btfsc	status,2,c
  6229   001226  EF9E  F008         	goto	l9201
  6230   00122A  0A03               	xorlw	3	; case 70
  6231   00122C  B4D8               	btfsc	status,2,c
  6232   00122E  EFA4  F008         	goto	l9209
  6233   001232  0A01               	xorlw	1	; case 71
  6234   001234  B4D8               	btfsc	status,2,c
  6235   001236  EF80  F008         	goto	l9153
  6236   00123A  0A0F               	xorlw	15	; case 72
  6237   00123C  B4D8               	btfsc	status,2,c
  6238   00123E  EFA7  F008         	goto	l9221
  6239   001242  0A01               	xorlw	1	; case 73
  6240   001244  B4D8               	btfsc	status,2,c
  6241   001246  EF71  F008         	goto	l9133
  6242   00124A  0A03               	xorlw	3	; case 74
  6243   00124C  B4D8               	btfsc	status,2,c
  6244   00124E  EFAD  F008         	goto	l9233
  6245   001252  0A06               	xorlw	6	; case 76
  6246   001254  B4D8               	btfsc	status,2,c
  6247   001256  EFB0  F008         	goto	l9237
  6248   00125A  0A03               	xorlw	3	; case 79
  6249   00125C  B4D8               	btfsc	status,2,c
  6250   00125E  EF6E  F008         	goto	l9129
  6251   001262  0A1F               	xorlw	31	; case 80
  6252   001264  B4D8               	btfsc	status,2,c
  6253   001266  EFB9  F008         	goto	l9253
  6254   00126A  0A03               	xorlw	3	; case 83
  6255   00126C  B4D8               	btfsc	status,2,c
  6256   00126E  EF7D  F008         	goto	l9149
  6257   001272  0A06               	xorlw	6	; case 85
  6258   001274  B4D8               	btfsc	status,2,c
  6259   001276  EFC5  F008         	goto	l9273
  6260   00127A  0A34               	xorlw	52	; case 97
  6261   00127C  B4D8               	btfsc	status,2,c
  6262   00127E  EF8F  F008         	goto	l9173
  6263   001282  0A03               	xorlw	3	; case 98
  6264   001284  B4D8               	btfsc	status,2,c
  6265   001286  EF92  F008         	goto	l9181
  6266   00128A  0A01               	xorlw	1	; case 99
  6267   00128C  B4D8               	btfsc	status,2,c
  6268   00128E  EF98  F008         	goto	l9189
  6269   001292  0A07               	xorlw	7	; case 100
  6270   001294  B4D8               	btfsc	status,2,c
  6271   001296  EF9B  F008         	goto	l9197
  6272   00129A  0A01               	xorlw	1	; case 101
  6273   00129C  B4D8               	btfsc	status,2,c
  6274   00129E  EFA1  F008         	goto	l9205
  6275   0012A2  0A02               	xorlw	2	; case 103
  6276   0012A4  B4D8               	btfsc	status,2,c
  6277   0012A6  EF89  F008         	goto	l9165
  6278   0012AA  0A0F               	xorlw	15	; case 104
  6279   0012AC  B4D8               	btfsc	status,2,c
  6280   0012AE  EFAA  F008         	goto	l9225
  6281   0012B2  0A06               	xorlw	6	; case 110
  6282   0012B4  B4D8               	btfsc	status,2,c
  6283   0012B6  EFB3  F008         	goto	l9241
  6284   0012BA  0A01               	xorlw	1	; case 111
  6285   0012BC  B4D8               	btfsc	status,2,c
  6286   0012BE  EFB6  F008         	goto	l9249
  6287   0012C2  0A1E               	xorlw	30	; case 113
  6288   0012C4  B4D8               	btfsc	status,2,c
  6289   0012C6  EFBC  F008         	goto	l9257
  6290   0012CA  0A03               	xorlw	3	; case 114
  6291   0012CC  B4D8               	btfsc	status,2,c
  6292   0012CE  EFBF  F008         	goto	l9261
  6293   0012D2  0A06               	xorlw	6	; case 116
  6294   0012D4  B4D8               	btfsc	status,2,c
  6295   0012D6  EFC2  F008         	goto	l9269
  6296   0012DA  0A0D               	xorlw	13	; case 121
  6297   0012DC  B4D8               	btfsc	status,2,c
  6298   0012DE  EFC8  F008         	goto	l9277
  6299   0012E2  0A86               	xorlw	134	; case 255
  6300   0012E4  B4D8               	btfsc	status,2,c
  6301   0012E6  EFCB  F008         	goto	l9281
  6302   0012EA  EF77  F009         	goto	l930
  6303   0012EE                     l930:
  6304   0012EE  0012               	return		;funcret
  6305   0012F0                     __end_of_MarkDisplay:
  6306                           	callstack 0
  6307                           
  6308 ;; *************** function _Ds1307Write *****************
  6309 ;; Defined at:
  6310 ;;		line 77 in file "DS1307.c"
  6311 ;; Parameters:    Size  Location     Type
  6312 ;;  write_datas     2   19[COMRAM] PTR unsigned char 
  6313 ;;		 -> rtc_default_values(10), 
  6314 ;; Auto vars:     Size  Location     Type
  6315 ;;  hour_temp       1   22[COMRAM] unsigned char 
  6316 ;; Return value:  Size  Location     Type
  6317 ;;                  1    wreg      void 
  6318 ;; Registers used:
  6319 ;;		wreg, fsr2l, fsr2h, status,2, status,0, cstack
  6320 ;; Tracked objects:
  6321 ;;		On entry : 0/0
  6322 ;;		On exit  : 0/0
  6323 ;;		Unchanged: 0/0
  6324 ;; Data sizes:     COMRAM   BANK0   BANK1   BANK2   BANK3   BANK4   BANK5
  6325 ;;      Params:         2       0       0       0       0       0       0
  6326 ;;      Locals:         1       0       0       0       0       0       0
  6327 ;;      Temps:          1       0       0       0       0       0       0
  6328 ;;      Totals:         4       0       0       0       0       0       0
  6329 ;;Total ram usage:        4 bytes
  6330 ;; Hardware stack levels used: 1
  6331 ;; Hardware stack levels required when called: 8
  6332 ;; This function calls:
  6333 ;;		_I2cStart
  6334 ;;		_I2cStop
  6335 ;;		_I2cWrite
  6336 ;; This function is called by:
  6337 ;;		_InitValue
  6338 ;; This function uses a non-reentrant model
  6339 ;;
  6340                           
  6341                           	psect	text32
  6342   001A88                     __ptext32:
  6343                           	callstack 0
  6344   001A88                     _Ds1307Write:
  6345                           	callstack 20
  6346   001A88                     
  6347                           ;DS1307.c: 79:     unsigned char hour_temp = write_datas[ 2 ];
  6348   001A88  EE20 F002          	lfsr	2,2
  6349   001A8C  5060               	movf	Ds1307Write@write_datas^0,w,c
  6350   001A8E  26D9               	addwf	fsr2l,f,c
  6351   001A90  5061               	movf	(Ds1307Write@write_datas+1)^0,w,c
  6352   001A92  22DA               	addwfc	fsr2h,f,c
  6353   001A94  50DF               	movf	indf2,w,c
  6354   001A96  6E63               	movwf	Ds1307Write@hour_temp^0,c
  6355   001A98                     
  6356                           ;DS1307.c: 80:     if( rtc_clock_disp_type == 1 ) {
  6357   001A98  044C               	decf	_rtc_clock_disp_type^0,w,c
  6358   001A9A  A4D8               	btfss	status,2,c
  6359   001A9C  EF52  F00D         	goto	u6871
  6360   001AA0  EF54  F00D         	goto	u6870
  6361   001AA4                     u6871:
  6362   001AA4  EF7D  F00D         	goto	l9355
  6363   001AA8                     u6870:
  6364   001AA8                     
  6365                           ;DS1307.c: 81:         if( hour_temp > 0x12 ) hour_temp = hour_temp - 0x12;
  6366   001AA8  0E12               	movlw	18
  6367   001AAA  6463               	cpfsgt	Ds1307Write@hour_temp^0,c
  6368   001AAC  EF5A  F00D         	goto	u6881
  6369   001AB0  EF5C  F00D         	goto	u6880
  6370   001AB4                     u6881:
  6371   001AB4  EF5F  F00D         	goto	l51
  6372   001AB8                     u6880:
  6373   001AB8  5063               	movf	Ds1307Write@hour_temp^0,w,c
  6374   001ABA  0FEE               	addlw	238
  6375   001ABC  6E63               	movwf	Ds1307Write@hour_temp^0,c
  6376   001ABE                     l51:
  6377                           
  6378                           ;DS1307.c: 82:         if( hour_temp % 16 >= 10 ) hour_temp -= 6;
  6379   001ABE  C063  F062         	movff	Ds1307Write@hour_temp,??_Ds1307Write
  6380   001AC2  0E0F               	movlw	15
  6381   001AC4  1662               	andwf	??_Ds1307Write^0,f,c
  6382   001AC6  0E09               	movlw	9
  6383   001AC8  6462               	cpfsgt	??_Ds1307Write^0,c
  6384   001ACA  EF69  F00D         	goto	u6891
  6385   001ACE  EF6B  F00D         	goto	u6890
  6386   001AD2                     u6891:
  6387   001AD2  EF6D  F00D         	goto	l52
  6388   001AD6                     u6890:
  6389   001AD6  0E06               	movlw	6
  6390   001AD8  5E63               	subwf	Ds1307Write@hour_temp^0,f,c
  6391   001ADA                     l52:
  6392                           
  6393                           ;DS1307.c: 83:         hour_temp = hour_temp | 0x40;
  6394   001ADA  5063               	movf	Ds1307Write@hour_temp^0,w,c
  6395   001ADC  0940               	iorlw	64
  6396   001ADE  6E63               	movwf	Ds1307Write@hour_temp^0,c
  6397                           
  6398                           ;DS1307.c: 84:         if( rtc_hour_ampm_flg == 1 ) hour_temp = hour_temp | 0x20;
  6399   001AE0  044B               	decf	_rtc_hour_ampm_flg^0,w,c
  6400   001AE2  A4D8               	btfss	status,2,c
  6401   001AE4  EF76  F00D         	goto	u6901
  6402   001AE8  EF78  F00D         	goto	u6900
  6403   001AEC                     u6901:
  6404   001AEC  EF9E  F00D         	goto	l9363
  6405   001AF0                     u6900:
  6406   001AF0  5063               	movf	Ds1307Write@hour_temp^0,w,c
  6407   001AF2  0920               	iorlw	32
  6408   001AF4  6E63               	movwf	Ds1307Write@hour_temp^0,c
  6409   001AF6  EF9E  F00D         	goto	l9363
  6410   001AFA                     l9355:
  6411                           
  6412                           ;DS1307.c: 87:         if( rtc_hour_ampm_flg == 1 && hour_temp < 0x12 ) hour_temp = hour
      +                          _temp + 0x12;
  6413   001AFA  044B               	decf	_rtc_hour_ampm_flg^0,w,c
  6414   001AFC  A4D8               	btfss	status,2,c
  6415   001AFE  EF83  F00D         	goto	u6911
  6416   001B02  EF85  F00D         	goto	u6910
  6417   001B06                     u6911:
  6418   001B06  EF90  F00D         	goto	l55
  6419   001B0A                     u6910:
  6420   001B0A  0E12               	movlw	18
  6421   001B0C  6063               	cpfslt	Ds1307Write@hour_temp^0,c
  6422   001B0E  EF8B  F00D         	goto	u6921
  6423   001B12  EF8D  F00D         	goto	u6920
  6424   001B16                     u6921:
  6425   001B16  EF90  F00D         	goto	l55
  6426   001B1A                     u6920:
  6427   001B1A  5063               	movf	Ds1307Write@hour_temp^0,w,c
  6428   001B1C  0F12               	addlw	18
  6429   001B1E  6E63               	movwf	Ds1307Write@hour_temp^0,c
  6430   001B20                     l55:
  6431                           
  6432                           ;DS1307.c: 88:         if( hour_temp % 16 >= 10 ) hour_temp += 6;
  6433   001B20  C063  F062         	movff	Ds1307Write@hour_temp,??_Ds1307Write
  6434   001B24  0E0F               	movlw	15
  6435   001B26  1662               	andwf	??_Ds1307Write^0,f,c
  6436   001B28  0E09               	movlw	9
  6437   001B2A  6462               	cpfsgt	??_Ds1307Write^0,c
  6438   001B2C  EF9A  F00D         	goto	u6931
  6439   001B30  EF9C  F00D         	goto	u6930
  6440   001B34                     u6931:
  6441   001B34  EF9E  F00D         	goto	l9363
  6442   001B38                     u6930:
  6443   001B38  0E06               	movlw	6
  6444   001B3A  2663               	addwf	Ds1307Write@hour_temp^0,f,c
  6445   001B3C                     l9363:
  6446                           
  6447                           ;DS1307.c: 90:     write_datas[ 2 ] = hour_temp;
  6448   001B3C  EE20 F002          	lfsr	2,2
  6449   001B40  5060               	movf	Ds1307Write@write_datas^0,w,c
  6450   001B42  26D9               	addwf	fsr2l,f,c
  6451   001B44  5061               	movf	(Ds1307Write@write_datas+1)^0,w,c
  6452   001B46  22DA               	addwfc	fsr2h,f,c
  6453   001B48  C063  FFDF         	movff	Ds1307Write@hour_temp,indf2
  6454   001B4C                     
  6455                           ;DS1307.c: 91:     I2cStart();
  6456   001B4C  ECFF  F014         	call	_I2cStart	;wreg free
  6457   001B50                     
  6458                           ;DS1307.c: 92:     I2cWrite( (0xD0) );
  6459   001B50  0ED0               	movlw	208
  6460   001B52  ECB3  F014         	call	_I2cWrite
  6461   001B56                     
  6462                           ;DS1307.c: 93:     I2cWrite( 0x00 );
  6463   001B56  0E00               	movlw	0
  6464   001B58  ECB3  F014         	call	_I2cWrite
  6465   001B5C                     
  6466                           ;DS1307.c: 94:     I2cWrite( write_datas[ 0 ] );
  6467   001B5C  C060  FFD9         	movff	Ds1307Write@write_datas,fsr2l
  6468   001B60  C061  FFDA         	movff	Ds1307Write@write_datas+1,fsr2h
  6469   001B64  50DF               	movf	indf2,w,c
  6470   001B66  ECB3  F014         	call	_I2cWrite
  6471   001B6A                     
  6472                           ;DS1307.c: 95:     I2cWrite( write_datas[ 1 ] );
  6473   001B6A  EE20 F001          	lfsr	2,1
  6474   001B6E  5060               	movf	Ds1307Write@write_datas^0,w,c
  6475   001B70  26D9               	addwf	fsr2l,f,c
  6476   001B72  5061               	movf	(Ds1307Write@write_datas+1)^0,w,c
  6477   001B74  22DA               	addwfc	fsr2h,f,c
  6478   001B76  50DF               	movf	indf2,w,c
  6479   001B78  ECB3  F014         	call	_I2cWrite
  6480   001B7C                     
  6481                           ;DS1307.c: 96:     I2cWrite( write_datas[ 2 ] );
  6482   001B7C  EE20 F002          	lfsr	2,2
  6483   001B80  5060               	movf	Ds1307Write@write_datas^0,w,c
  6484   001B82  26D9               	addwf	fsr2l,f,c
  6485   001B84  5061               	movf	(Ds1307Write@write_datas+1)^0,w,c
  6486   001B86  22DA               	addwfc	fsr2h,f,c
  6487   001B88  50DF               	movf	indf2,w,c
  6488   001B8A  ECB3  F014         	call	_I2cWrite
  6489   001B8E                     
  6490                           ;DS1307.c: 97:     I2cWrite( write_datas[ 3 ] );
  6491   001B8E  EE20 F003          	lfsr	2,3
  6492   001B92  5060               	movf	Ds1307Write@write_datas^0,w,c
  6493   001B94  26D9               	addwf	fsr2l,f,c
  6494   001B96  5061               	movf	(Ds1307Write@write_datas+1)^0,w,c
  6495   001B98  22DA               	addwfc	fsr2h,f,c
  6496   001B9A  50DF               	movf	indf2,w,c
  6497   001B9C  ECB3  F014         	call	_I2cWrite
  6498   001BA0                     
  6499                           ;DS1307.c: 98:     I2cWrite( write_datas[ 4 ] );
  6500   001BA0  EE20 F004          	lfsr	2,4
  6501   001BA4  5060               	movf	Ds1307Write@write_datas^0,w,c
  6502   001BA6  26D9               	addwf	fsr2l,f,c
  6503   001BA8  5061               	movf	(Ds1307Write@write_datas+1)^0,w,c
  6504   001BAA  22DA               	addwfc	fsr2h,f,c
  6505   001BAC  50DF               	movf	indf2,w,c
  6506   001BAE  ECB3  F014         	call	_I2cWrite
  6507   001BB2                     
  6508                           ;DS1307.c: 99:     I2cWrite( write_datas[ 5 ] );
  6509   001BB2  EE20 F005          	lfsr	2,5
  6510   001BB6  5060               	movf	Ds1307Write@write_datas^0,w,c
  6511   001BB8  26D9               	addwf	fsr2l,f,c
  6512   001BBA  5061               	movf	(Ds1307Write@write_datas+1)^0,w,c
  6513   001BBC  22DA               	addwfc	fsr2h,f,c
  6514   001BBE  50DF               	movf	indf2,w,c
  6515   001BC0  ECB3  F014         	call	_I2cWrite
  6516   001BC4                     
  6517                           ;DS1307.c: 100:     I2cWrite( write_datas[ 6 ] );
  6518   001BC4  EE20 F006          	lfsr	2,6
  6519   001BC8  5060               	movf	Ds1307Write@write_datas^0,w,c
  6520   001BCA  26D9               	addwf	fsr2l,f,c
  6521   001BCC  5061               	movf	(Ds1307Write@write_datas+1)^0,w,c
  6522   001BCE  22DA               	addwfc	fsr2h,f,c
  6523   001BD0  50DF               	movf	indf2,w,c
  6524   001BD2  ECB3  F014         	call	_I2cWrite
  6525   001BD6                     
  6526                           ;DS1307.c: 101:     I2cWrite( 0x90 );
  6527   001BD6  0E90               	movlw	144
  6528   001BD8  ECB3  F014         	call	_I2cWrite
  6529                           
  6530                           ;DS1307.c: 102:     I2cStop();
  6531   001BDC  EC11  F015         	call	_I2cStop	;wreg free
  6532   001BE0  0012               	return		;funcret
  6533   001BE2                     __end_of_Ds1307Write:
  6534                           	callstack 0
  6535                           
  6536 ;; *************** function _Ds1307HMSRead *****************
  6537 ;; Defined at:
  6538 ;;		line 55 in file "DS1307.c"
  6539 ;; Parameters:    Size  Location     Type
  6540 ;;		None
  6541 ;; Auto vars:     Size  Location     Type
  6542 ;;  ds1307_date_    3    0[BANK1 ] unsigned char [3]
  6543 ;; Return value:  Size  Location     Type
  6544 ;;                  2   20[COMRAM] PTR unsigned char 
  6545 ;; Registers used:
  6546 ;;		wreg, status,2, status,0, cstack
  6547 ;; Tracked objects:
  6548 ;;		On entry : 0/0
  6549 ;;		On exit  : 0/0
  6550 ;;		Unchanged: 0/0
  6551 ;; Data sizes:     COMRAM   BANK0   BANK1   BANK2   BANK3   BANK4   BANK5
  6552 ;;      Params:         2       0       0       0       0       0       0
  6553 ;;      Locals:         0       0       3       0       0       0       0
  6554 ;;      Temps:          0       0       0       0       0       0       0
  6555 ;;      Totals:         2       0       3       0       0       0       0
  6556 ;;Total ram usage:        5 bytes
  6557 ;; Hardware stack levels used: 1
  6558 ;; Hardware stack levels required when called: 8
  6559 ;; This function calls:
  6560 ;;		_I2cRead
  6561 ;;		_I2cRestart
  6562 ;;		_I2cStart
  6563 ;;		_I2cStop
  6564 ;;		_I2cWrite
  6565 ;; This function is called by:
  6566 ;;		_main
  6567 ;;		_InitValue
  6568 ;; This function uses a non-reentrant model
  6569 ;;
  6570                           
  6571                           	psect	text33
  6572   001E88                     __ptext33:
  6573                           	callstack 0
  6574   001E88                     _Ds1307HMSRead:
  6575                           	callstack 22
  6576   001E88                     
  6577                           ;DS1307.c: 57:     I2cStart();
  6578   001E88  ECFF  F014         	call	_I2cStart	;wreg free
  6579   001E8C                     
  6580                           ;DS1307.c: 58:     I2cWrite( (0xD0) );
  6581   001E8C  0ED0               	movlw	208
  6582   001E8E  ECB3  F014         	call	_I2cWrite
  6583   001E92                     
  6584                           ;DS1307.c: 59:     I2cWrite( 0x00 );
  6585   001E92  0E00               	movlw	0
  6586   001E94  ECB3  F014         	call	_I2cWrite
  6587                           
  6588                           ;DS1307.c: 60:     I2cRestart();
  6589   001E98  EC08  F015         	call	_I2cRestart	;wreg free
  6590   001E9C                     
  6591                           ;DS1307.c: 61:     I2cWrite( (0xD1) );
  6592   001E9C  0ED1               	movlw	209
  6593   001E9E  ECB3  F014         	call	_I2cWrite
  6594   001EA2                     
  6595                           ;DS1307.c: 62:     unsigned char ds1307_date_datas[ 3 ];;DS1307.c: 63:     real_rtc_data
      +                          [0] = I2cRead( 0 );
  6596   001EA2  0E00               	movlw	0
  6597   001EA4  EC2C  F014         	call	_I2cRead
  6598   001EA8  6E01               	movwf	_real_rtc_data^0,c
  6599   001EAA                     
  6600                           ;DS1307.c: 64:     real_rtc_data[1] = I2cRead( 0 );
  6601   001EAA  0E00               	movlw	0
  6602   001EAC  EC2C  F014         	call	_I2cRead
  6603   001EB0  6E02               	movwf	(_real_rtc_data+1)^0,c
  6604   001EB2                     
  6605                           ;DS1307.c: 65:     real_rtc_data[2] = I2cRead( 1 );
  6606   001EB2  0E01               	movlw	1
  6607   001EB4  EC2C  F014         	call	_I2cRead
  6608   001EB8  6E03               	movwf	(_real_rtc_data+2)^0,c
  6609   001EBA                     
  6610                           ;DS1307.c: 66:     I2cStop();
  6611   001EBA  EC11  F015         	call	_I2cStop	;wreg free
  6612   001EBE                     
  6613                           ;DS1307.c: 67:     rtc_clock_disp_type = ( real_rtc_data[ 2 ] & 0x40 ) ? 1 : 0;
  6614   001EBE  BC03               	btfsc	(_real_rtc_data+2)^0,6,c
  6615   001EC0  EF64  F00F         	goto	u6801
  6616   001EC4  EF67  F00F         	goto	u6800
  6617   001EC8                     u6801:
  6618   001EC8  0E01               	movlw	1
  6619   001ECA  EF68  F00F         	goto	u6810
  6620   001ECE                     u6800:
  6621   001ECE  0E00               	movlw	0
  6622   001ED0                     u6810:
  6623   001ED0  6E4C               	movwf	_rtc_clock_disp_type^0,c
  6624   001ED2                     
  6625                           ;DS1307.c: 68:     if( rtc_clock_disp_type == 0 ) real_rtc_data[ 2 ] = real_rtc_data[ 2 
      +                          ] & 0x3f;
  6626   001ED2  504C               	movf	_rtc_clock_disp_type^0,w,c
  6627   001ED4  A4D8               	btfss	status,2,c
  6628   001ED6  EF6F  F00F         	goto	u6821
  6629   001EDA  EF71  F00F         	goto	u6820
  6630   001EDE                     u6821:
  6631   001EDE  EF76  F00F         	goto	l9317
  6632   001EE2                     u6820:
  6633   001EE2  5003               	movf	(_real_rtc_data+2)^0,w,c
  6634   001EE4  0B3F               	andlw	63
  6635   001EE6  6E03               	movwf	(_real_rtc_data+2)^0,c
  6636   001EE8  EF83  F00F         	goto	l9321
  6637   001EEC                     l9317:
  6638   001EEC  BA03               	btfsc	(_real_rtc_data+2)^0,5,c
  6639   001EEE  EF7B  F00F         	goto	u6831
  6640   001EF2  EF7E  F00F         	goto	u6830
  6641   001EF6                     u6831:
  6642   001EF6  0E01               	movlw	1
  6643   001EF8  EF7F  F00F         	goto	u6840
  6644   001EFC                     u6830:
  6645   001EFC  0E00               	movlw	0
  6646   001EFE                     u6840:
  6647   001EFE  6E4B               	movwf	_rtc_hour_ampm_flg^0,c
  6648   001F00  5003               	movf	(_real_rtc_data+2)^0,w,c
  6649   001F02  0B1F               	andlw	31
  6650   001F04  6E03               	movwf	(_real_rtc_data+2)^0,c
  6651   001F06                     l9321:
  6652                           
  6653                           ;DS1307.c: 70:     ds1307_date_datas[ 0 ] = real_rtc_data[ 2 ] >> 4; ds1307_date_datas[ 
      +                          1 ] = real_rtc_data[ 2 ] % 16;
  6654   001F06  3803               	swapf	(_real_rtc_data+2)^0,w,c
  6655   001F08  0B0F               	andlw	15
  6656   001F0A  0101               	movlb	1	; () banked
  6657   001F0C  6F28               	movwf	Ds1307HMSRead@ds1307_date_datas& (0+255),b
  6658   001F0E                     
  6659                           ; BSR set to: 1
  6660   001F0E  5003               	movf	(_real_rtc_data+2)^0,w,c
  6661   001F10  0B0F               	andlw	15
  6662   001F12  6F29               	movwf	(Ds1307HMSRead@ds1307_date_datas+1)& (0+255),b
  6663   001F14                     
  6664                           ; BSR set to: 1
  6665                           ;DS1307.c: 71:     ds1307_date_datas[ 2 ] = real_rtc_data[ 1 ] >> 4; ds1307_date_datas[ 
      +                          3 ] = real_rtc_data[ 1 ] % 16;
  6666   001F14  3802               	swapf	(_real_rtc_data+1)^0,w,c
  6667   001F16  0B0F               	andlw	15
  6668   001F18  6F2A               	movwf	(Ds1307HMSRead@ds1307_date_datas+2)& (0+255),b
  6669   001F1A                     
  6670                           ; BSR set to: 1
  6671   001F1A  5002               	movf	(_real_rtc_data+1)^0,w,c
  6672   001F1C  0B0F               	andlw	15
  6673   001F1E  6F2B               	movwf	(Ds1307HMSRead@ds1307_date_datas+3)& (0+255),b
  6674   001F20                     
  6675                           ; BSR set to: 1
  6676                           ;DS1307.c: 72:     ds1307_date_datas[ 4 ] = real_rtc_data[ 0 ] >> 4; ds1307_date_datas[ 
      +                          5 ] = real_rtc_data[ 0 ] % 16;
  6677   001F20  3801               	swapf	_real_rtc_data^0,w,c
  6678   001F22  0B0F               	andlw	15
  6679   001F24  6F2C               	movwf	(Ds1307HMSRead@ds1307_date_datas+4)& (0+255),b
  6680   001F26                     
  6681                           ; BSR set to: 1
  6682   001F26  5001               	movf	_real_rtc_data^0,w,c
  6683   001F28  0B0F               	andlw	15
  6684   001F2A  6F2D               	movwf	(Ds1307HMSRead@ds1307_date_datas+5)& (0+255),b
  6685   001F2C                     
  6686                           ; BSR set to: 1
  6687                           ;DS1307.c: 73:     if( rtc_clock_disp_type == 1 && ds1307_date_datas[ 0 ] == 0 ) ds1307_
      +                          date_datas[ 0 ] = 0xff;
  6688   001F2C  044C               	decf	_rtc_clock_disp_type^0,w,c
  6689   001F2E  A4D8               	btfss	status,2,c
  6690   001F30  EF9C  F00F         	goto	u6851
  6691   001F34  EF9E  F00F         	goto	u6850
  6692   001F38                     u6851:
  6693   001F38  EFA7  F00F         	goto	l9339
  6694   001F3C                     u6850:
  6695   001F3C                     
  6696                           ; BSR set to: 1
  6697   001F3C  5128               	movf	Ds1307HMSRead@ds1307_date_datas& (0+255),w,b
  6698   001F3E  A4D8               	btfss	status,2,c
  6699   001F40  EFA4  F00F         	goto	u6861
  6700   001F44  EFA6  F00F         	goto	u6860
  6701   001F48                     u6861:
  6702   001F48  EFA7  F00F         	goto	l9339
  6703   001F4C                     u6860:
  6704   001F4C                     
  6705                           ; BSR set to: 1
  6706   001F4C  6928               	setf	Ds1307HMSRead@ds1307_date_datas& (0+255),b
  6707   001F4E                     l9339:
  6708                           
  6709                           ; BSR set to: 1
  6710                           ;DS1307.c: 74:     return ds1307_date_datas;
  6711   001F4E  0E28               	movlw	low Ds1307HMSRead@ds1307_date_datas
  6712   001F50  6E61               	movwf	?_Ds1307HMSRead^0,c
  6713   001F52  0E01               	movlw	high Ds1307HMSRead@ds1307_date_datas
  6714   001F54  6E62               	movwf	(?_Ds1307HMSRead+1)^0,c
  6715   001F56                     
  6716                           ; BSR set to: 1
  6717   001F56  0012               	return		;funcret
  6718   001F58                     __end_of_Ds1307HMSRead:
  6719                           	callstack 0
  6720                           
  6721 ;; *************** function _I2cWrite *****************
  6722 ;; Defined at:
  6723 ;;		line 45 in file "I2C.c"
  6724 ;; Parameters:    Size  Location     Type
  6725 ;;  data            1    wreg     unsigned char 
  6726 ;; Auto vars:     Size  Location     Type
  6727 ;;  data            1   18[COMRAM] unsigned char 
  6728 ;; Return value:  Size  Location     Type
  6729 ;;                  1    wreg      void 
  6730 ;; Registers used:
  6731 ;;		wreg, cstack
  6732 ;; Tracked objects:
  6733 ;;		On entry : 0/0
  6734 ;;		On exit  : 0/0
  6735 ;;		Unchanged: 0/0
  6736 ;; Data sizes:     COMRAM   BANK0   BANK1   BANK2   BANK3   BANK4   BANK5
  6737 ;;      Params:         0       0       0       0       0       0       0
  6738 ;;      Locals:         1       0       0       0       0       0       0
  6739 ;;      Temps:          0       0       0       0       0       0       0
  6740 ;;      Totals:         1       0       0       0       0       0       0
  6741 ;;Total ram usage:        1 bytes
  6742 ;; Hardware stack levels used: 1
  6743 ;; Hardware stack levels required when called: 7
  6744 ;; This function calls:
  6745 ;;		_I2cWait
  6746 ;; This function is called by:
  6747 ;;		_Ds1307HMSRead
  6748 ;;		_Ds1307Write
  6749 ;;		_Ds1307HourSet
  6750 ;;		_Ds1307MinuteSet
  6751 ;;		_Ds1307SecondSet
  6752 ;;		_Ds1307Read
  6753 ;; This function uses a non-reentrant model
  6754 ;;
  6755                           
  6756                           	psect	text34
  6757   002966                     __ptext34:
  6758                           	callstack 0
  6759   002966                     _I2cWrite:
  6760                           	callstack 20
  6761                           
  6762                           ; BSR set to: 1
  6763                           ;incstack = 0
  6764                           ;I2cWrite@data stored from wreg
  6765   002966  6E5F               	movwf	I2cWrite@data^0,c
  6766   002968                     
  6767                           ;I2C.c: 46:     SSPBUF = data;
  6768   002968  C05F  FFC9         	movff	I2cWrite@data,4041	;volatile
  6769   00296C                     l152:
  6770   00296C  B0C7               	btfsc	199,0,c	;volatile
  6771   00296E  EFBB  F014         	goto	u6751
  6772   002972  EFBD  F014         	goto	u6750
  6773   002976                     u6751:
  6774   002976  EFB6  F014         	goto	l152
  6775   00297A                     u6750:
  6776   00297A                     
  6777                           ;I2C.c: 48:     I2cWait();
  6778   00297A  EC84  F014         	call	_I2cWait	;wreg free
  6779   00297E  0012               	return		;funcret
  6780   002980                     __end_of_I2cWrite:
  6781                           	callstack 0
  6782                           
  6783 ;; *************** function _I2cStart *****************
  6784 ;; Defined at:
  6785 ;;		line 22 in file "I2C.c"
  6786 ;; Parameters:    Size  Location     Type
  6787 ;;		None
  6788 ;; Auto vars:     Size  Location     Type
  6789 ;;		None
  6790 ;; Return value:  Size  Location     Type
  6791 ;;                  1    wreg      void 
  6792 ;; Registers used:
  6793 ;;		None
  6794 ;; Tracked objects:
  6795 ;;		On entry : 0/0
  6796 ;;		On exit  : 0/0
  6797 ;;		Unchanged: 0/0
  6798 ;; Data sizes:     COMRAM   BANK0   BANK1   BANK2   BANK3   BANK4   BANK5
  6799 ;;      Params:         0       0       0       0       0       0       0
  6800 ;;      Locals:         0       0       0       0       0       0       0
  6801 ;;      Temps:          0       0       0       0       0       0       0
  6802 ;;      Totals:         0       0       0       0       0       0       0
  6803 ;;Total ram usage:        0 bytes
  6804 ;; Hardware stack levels used: 1
  6805 ;; Hardware stack levels required when called: 5
  6806 ;; This function calls:
  6807 ;;		Nothing
  6808 ;; This function is called by:
  6809 ;;		_Ds1307HMSRead
  6810 ;;		_Ds1307Write
  6811 ;;		_Ds1307HourSet
  6812 ;;		_Ds1307MinuteSet
  6813 ;;		_Ds1307SecondSet
  6814 ;;		_Ds1307Read
  6815 ;; This function uses a non-reentrant model
  6816 ;;
  6817                           
  6818                           	psect	text35
  6819   0029FE                     __ptext35:
  6820                           	callstack 0
  6821   0029FE                     _I2cStart:
  6822                           	callstack 22
  6823   0029FE                     
  6824                           ;I2C.c: 23:     SSPCON2bits.SEN = 1;
  6825   0029FE  80C5               	bsf	197,0,c	;volatile
  6826   002A00                     l127:
  6827   002A00  B0C5               	btfsc	197,0,c	;volatile
  6828   002A02  EF05  F015         	goto	u6741
  6829   002A06  EF07  F015         	goto	u6740
  6830   002A0A                     u6741:
  6831   002A0A  EF00  F015         	goto	l127
  6832   002A0E                     u6740:
  6833   002A0E  0012               	return		;funcret
  6834   002A10                     __end_of_I2cStart:
  6835                           	callstack 0
  6836                           
  6837 ;; *************** function _I2cRestart *****************
  6838 ;; Defined at:
  6839 ;;		line 32 in file "I2C.c"
  6840 ;; Parameters:    Size  Location     Type
  6841 ;;		None
  6842 ;; Auto vars:     Size  Location     Type
  6843 ;;		None
  6844 ;; Return value:  Size  Location     Type
  6845 ;;                  1    wreg      void 
  6846 ;; Registers used:
  6847 ;;		None
  6848 ;; Tracked objects:
  6849 ;;		On entry : 0/0
  6850 ;;		On exit  : 0/0
  6851 ;;		Unchanged: 0/0
  6852 ;; Data sizes:     COMRAM   BANK0   BANK1   BANK2   BANK3   BANK4   BANK5
  6853 ;;      Params:         0       0       0       0       0       0       0
  6854 ;;      Locals:         0       0       0       0       0       0       0
  6855 ;;      Temps:          0       0       0       0       0       0       0
  6856 ;;      Totals:         0       0       0       0       0       0       0
  6857 ;;Total ram usage:        0 bytes
  6858 ;; Hardware stack levels used: 1
  6859 ;; Hardware stack levels required when called: 5
  6860 ;; This function calls:
  6861 ;;		Nothing
  6862 ;; This function is called by:
  6863 ;;		_Ds1307HMSRead
  6864 ;;		_Ds1307Read
  6865 ;; This function uses a non-reentrant model
  6866 ;;
  6867                           
  6868                           	psect	text36
  6869   002A10                     __ptext36:
  6870                           	callstack 0
  6871   002A10                     _I2cRestart:
  6872                           	callstack 24
  6873   002A10                     
  6874                           ;I2C.c: 33:     SSPCON2bits.RSEN = 1;
  6875   002A10  82C5               	bsf	197,1,c	;volatile
  6876   002A12                     l139:
  6877   002A12  B2C5               	btfsc	197,1,c	;volatile
  6878   002A14  EF0E  F015         	goto	u6761
  6879   002A18  EF10  F015         	goto	u6760
  6880   002A1C                     u6761:
  6881   002A1C  EF09  F015         	goto	l139
  6882   002A20                     u6760:
  6883   002A20  0012               	return		;funcret
  6884   002A22                     __end_of_I2cRestart:
  6885                           	callstack 0
  6886                           
  6887 ;; *************** function _I2cRead *****************
  6888 ;; Defined at:
  6889 ;;		line 51 in file "I2C.c"
  6890 ;; Parameters:    Size  Location     Type
  6891 ;;  ack             1    wreg     unsigned char 
  6892 ;; Auto vars:     Size  Location     Type
  6893 ;;  ack             1   18[COMRAM] unsigned char 
  6894 ;;  receive         1   19[COMRAM] unsigned char 
  6895 ;; Return value:  Size  Location     Type
  6896 ;;                  1    wreg      unsigned char 
  6897 ;; Registers used:
  6898 ;;		wreg, status,2, cstack
  6899 ;; Tracked objects:
  6900 ;;		On entry : 0/0
  6901 ;;		On exit  : 0/0
  6902 ;;		Unchanged: 0/0
  6903 ;; Data sizes:     COMRAM   BANK0   BANK1   BANK2   BANK3   BANK4   BANK5
  6904 ;;      Params:         0       0       0       0       0       0       0
  6905 ;;      Locals:         2       0       0       0       0       0       0
  6906 ;;      Temps:          0       0       0       0       0       0       0
  6907 ;;      Totals:         2       0       0       0       0       0       0
  6908 ;;Total ram usage:        2 bytes
  6909 ;; Hardware stack levels used: 1
  6910 ;; Hardware stack levels required when called: 7
  6911 ;; This function calls:
  6912 ;;		_I2cWait
  6913 ;; This function is called by:
  6914 ;;		_Ds1307HMSRead
  6915 ;;		_Ds1307Read
  6916 ;; This function uses a non-reentrant model
  6917 ;;
  6918                           
  6919                           	psect	text37
  6920   002858                     __ptext37:
  6921                           	callstack 0
  6922   002858                     _I2cRead:
  6923                           	callstack 22
  6924                           
  6925                           ;incstack = 0
  6926                           ;I2cRead@ack stored from wreg
  6927   002858  6E5F               	movwf	I2cRead@ack^0,c
  6928   00285A                     
  6929                           ;I2C.c: 53:     SSPCON2bits.RCEN = 1;
  6930   00285A  86C5               	bsf	197,3,c	;volatile
  6931   00285C                     l158:
  6932   00285C  A0C7               	btfss	199,0,c	;volatile
  6933   00285E  EF33  F014         	goto	u6771
  6934   002862  EF35  F014         	goto	u6770
  6935   002866                     u6771:
  6936   002866  EF2E  F014         	goto	l158
  6937   00286A                     u6770:
  6938   00286A                     
  6939                           ;I2C.c: 55:     receive = SSPBUF;
  6940   00286A  CFC9 F060          	movff	4041,I2cRead@receive	;volatile
  6941   00286E                     
  6942                           ;I2C.c: 56:     I2cWait();
  6943   00286E  EC84  F014         	call	_I2cWait	;wreg free
  6944   002872                     
  6945                           ;I2C.c: 57:     SSPCON2bits.ACKDT = ack;
  6946   002872  B05F               	btfsc	I2cRead@ack^0,0,c
  6947   002874  D002               	bra	u6785
  6948   002876  9AC5               	bcf	197,5,c	;volatile
  6949   002878  D001               	bra	u6786
  6950   00287A                     u6785:
  6951   00287A  8AC5               	bsf	197,5,c	;volatile
  6952   00287C                     u6786:
  6953   00287C                     
  6954                           ;I2C.c: 58:     SSPCON2bits.ACKEN=1;
  6955   00287C  88C5               	bsf	197,4,c	;volatile
  6956   00287E                     l161:
  6957   00287E  B8C5               	btfsc	197,4,c	;volatile
  6958   002880  EF44  F014         	goto	u6791
  6959   002884  EF46  F014         	goto	u6790
  6960   002888                     u6791:
  6961   002888  EF3F  F014         	goto	l161
  6962   00288C                     u6790:
  6963   00288C                     
  6964                           ;I2C.c: 60:     return receive;
  6965   00288C  5060               	movf	I2cRead@receive^0,w,c
  6966   00288E  0012               	return		;funcret
  6967   002890                     __end_of_I2cRead:
  6968                           	callstack 0
  6969                           
  6970 ;; *************** function _I2cWait *****************
  6971 ;; Defined at:
  6972 ;;		line 37 in file "I2C.c"
  6973 ;; Parameters:    Size  Location     Type
  6974 ;;		None
  6975 ;; Auto vars:     Size  Location     Type
  6976 ;;		None
  6977 ;; Return value:  Size  Location     Type
  6978 ;;                  1    wreg      void 
  6979 ;; Registers used:
  6980 ;;		cstack
  6981 ;; Tracked objects:
  6982 ;;		On entry : 0/0
  6983 ;;		On exit  : 0/0
  6984 ;;		Unchanged: 0/0
  6985 ;; Data sizes:     COMRAM   BANK0   BANK1   BANK2   BANK3   BANK4   BANK5
  6986 ;;      Params:         0       0       0       0       0       0       0
  6987 ;;      Locals:         0       0       0       0       0       0       0
  6988 ;;      Temps:          0       0       0       0       0       0       0
  6989 ;;      Totals:         0       0       0       0       0       0       0
  6990 ;;Total ram usage:        0 bytes
  6991 ;; Hardware stack levels used: 1
  6992 ;; Hardware stack levels required when called: 6
  6993 ;; This function calls:
  6994 ;;		_I2cStop
  6995 ;; This function is called by:
  6996 ;;		_I2cWrite
  6997 ;;		_I2cRead
  6998 ;; This function uses a non-reentrant model
  6999 ;;
  7000                           
  7001                           	psect	text38
  7002   002908                     __ptext38:
  7003                           	callstack 0
  7004   002908                     _I2cWait:
  7005                           	callstack 20
  7006   002908                     l145:
  7007                           
  7008                           ;I2C.c: 38:  while(SSPSTATbits.R_NOT_W == 1)
  7009   002908  B4C7               	btfsc	199,2,c	;volatile
  7010   00290A  EF89  F014         	goto	u6721
  7011   00290E  EF8B  F014         	goto	u6720
  7012   002912                     u6721:
  7013   002912  EF84  F014         	goto	l145
  7014   002916                     u6720:
  7015   002916                     
  7016                           ;I2C.c: 40:  if(SSPCON2bits.ACKSTAT == 1) {
  7017   002916  ACC5               	btfss	197,6,c	;volatile
  7018   002918  EF90  F014         	goto	u6731
  7019   00291C  EF92  F014         	goto	u6730
  7020   002920                     u6731:
  7021   002920  EF94  F014         	goto	l149
  7022   002924                     u6730:
  7023   002924                     
  7024                           ;I2C.c: 41:   I2cStop();
  7025   002924  EC11  F015         	call	_I2cStop	;wreg free
  7026   002928                     l149:
  7027   002928  0012               	return		;funcret
  7028   00292A                     __end_of_I2cWait:
  7029                           	callstack 0
  7030                           
  7031 ;; *************** function _I2cStop *****************
  7032 ;; Defined at:
  7033 ;;		line 27 in file "I2C.c"
  7034 ;; Parameters:    Size  Location     Type
  7035 ;;		None
  7036 ;; Auto vars:     Size  Location     Type
  7037 ;;		None
  7038 ;; Return value:  Size  Location     Type
  7039 ;;                  1    wreg      void 
  7040 ;; Registers used:
  7041 ;;		None
  7042 ;; Tracked objects:
  7043 ;;		On entry : 0/0
  7044 ;;		On exit  : 0/0
  7045 ;;		Unchanged: 0/0
  7046 ;; Data sizes:     COMRAM   BANK0   BANK1   BANK2   BANK3   BANK4   BANK5
  7047 ;;      Params:         0       0       0       0       0       0       0
  7048 ;;      Locals:         0       0       0       0       0       0       0
  7049 ;;      Temps:          0       0       0       0       0       0       0
  7050 ;;      Totals:         0       0       0       0       0       0       0
  7051 ;;Total ram usage:        0 bytes
  7052 ;; Hardware stack levels used: 1
  7053 ;; Hardware stack levels required when called: 5
  7054 ;; This function calls:
  7055 ;;		Nothing
  7056 ;; This function is called by:
  7057 ;;		_Ds1307HMSRead
  7058 ;;		_Ds1307Write
  7059 ;;		_Ds1307HourSet
  7060 ;;		_Ds1307MinuteSet
  7061 ;;		_Ds1307SecondSet
  7062 ;;		_I2cWait
  7063 ;;		_Ds1307Read
  7064 ;; This function uses a non-reentrant model
  7065 ;;
  7066                           
  7067                           	psect	text39
  7068   002A22                     __ptext39:
  7069                           	callstack 0
  7070   002A22                     _I2cStop:
  7071                           	callstack 20
  7072   002A22                     
  7073                           ;I2C.c: 28:     SSPCON2bits.PEN = 1;
  7074   002A22  84C5               	bsf	197,2,c	;volatile
  7075   002A24                     l133:
  7076   002A24  B4C5               	btfsc	197,2,c	;volatile
  7077   002A26  EF17  F015         	goto	u6711
  7078   002A2A  EF19  F015         	goto	u6710
  7079   002A2E                     u6711:
  7080   002A2E  EF12  F015         	goto	l133
  7081   002A32                     u6710:
  7082   002A32  0012               	return		;funcret
  7083   002A34                     __end_of_I2cStop:
  7084                           	callstack 0
  7085                           
  7086 ;; *************** function _EnableAllInterrupts *****************
  7087 ;; Defined at:
  7088 ;;		line 70 in file "Interrupts.c"
  7089 ;; Parameters:    Size  Location     Type
  7090 ;;		None
  7091 ;; Auto vars:     Size  Location     Type
  7092 ;;		None
  7093 ;; Return value:  Size  Location     Type
  7094 ;;                  1    wreg      void 
  7095 ;; Registers used:
  7096 ;;		None
  7097 ;; Tracked objects:
  7098 ;;		On entry : 0/0
  7099 ;;		On exit  : 0/0
  7100 ;;		Unchanged: 0/0
  7101 ;; Data sizes:     COMRAM   BANK0   BANK1   BANK2   BANK3   BANK4   BANK5
  7102 ;;      Params:         0       0       0       0       0       0       0
  7103 ;;      Locals:         0       0       0       0       0       0       0
  7104 ;;      Temps:          0       0       0       0       0       0       0
  7105 ;;      Totals:         0       0       0       0       0       0       0
  7106 ;;Total ram usage:        0 bytes
  7107 ;; Hardware stack levels used: 1
  7108 ;; Hardware stack levels required when called: 5
  7109 ;; This function calls:
  7110 ;;		Nothing
  7111 ;; This function is called by:
  7112 ;;		_DeviceInit
  7113 ;; This function uses a non-reentrant model
  7114 ;;
  7115                           
  7116                           	psect	text40
  7117   002A88                     __ptext40:
  7118                           	callstack 0
  7119   002A88                     _EnableAllInterrupts:
  7120                           	callstack 24
  7121   002A88                     
  7122                           ;Interrupts.c: 71:     (INTCONbits.GIE = 1);
  7123   002A88  8EF2               	bsf	242,7,c	;volatile
  7124   002A8A  0012               	return		;funcret
  7125   002A8C                     __end_of_EnableAllInterrupts:
  7126                           	callstack 0
  7127                           
  7128 ;; *************** function _Ds1307Init *****************
  7129 ;; Defined at:
  7130 ;;		line 11 in file "DS1307.c"
  7131 ;; Parameters:    Size  Location     Type
  7132 ;;		None
  7133 ;; Auto vars:     Size  Location     Type
  7134 ;;		None
  7135 ;; Return value:  Size  Location     Type
  7136 ;;                  1    wreg      void 
  7137 ;; Registers used:
  7138 ;;		wreg, status,2, cstack
  7139 ;; Tracked objects:
  7140 ;;		On entry : 0/0
  7141 ;;		On exit  : 0/0
  7142 ;;		Unchanged: 0/0
  7143 ;; Data sizes:     COMRAM   BANK0   BANK1   BANK2   BANK3   BANK4   BANK5
  7144 ;;      Params:         0       0       0       0       0       0       0
  7145 ;;      Locals:         0       0       0       0       0       0       0
  7146 ;;      Temps:          0       0       0       0       0       0       0
  7147 ;;      Totals:         0       0       0       0       0       0       0
  7148 ;;Total ram usage:        0 bytes
  7149 ;; Hardware stack levels used: 1
  7150 ;; Hardware stack levels required when called: 6
  7151 ;; This function calls:
  7152 ;;		_I2cInit
  7153 ;; This function is called by:
  7154 ;;		_DeviceInit
  7155 ;; This function uses a non-reentrant model
  7156 ;;
  7157                           
  7158                           	psect	text41
  7159   002A62                     __ptext41:
  7160                           	callstack 0
  7161   002A62                     _Ds1307Init:
  7162                           	callstack 23
  7163   002A62                     
  7164                           ;DS1307.c: 15:     rtc_clock_disp_type = 1;
  7165   002A62  0E01               	movlw	1
  7166   002A64  6E4C               	movwf	_rtc_clock_disp_type^0,c
  7167                           
  7168                           ;DS1307.c: 16:     rtc_hour_ampm_flg = 1;
  7169   002A66  0E01               	movlw	1
  7170   002A68  6E4B               	movwf	_rtc_hour_ampm_flg^0,c
  7171   002A6A                     
  7172                           ;DS1307.c: 17:     I2cInit();
  7173   002A6A  ECE3  F014         	call	_I2cInit	;wreg free
  7174   002A6E  0012               	return		;funcret
  7175   002A70                     __end_of_Ds1307Init:
  7176                           	callstack 0
  7177                           
  7178 ;; *************** function _I2cInit *****************
  7179 ;; Defined at:
  7180 ;;		line 10 in file "I2C.c"
  7181 ;; Parameters:    Size  Location     Type
  7182 ;;		None
  7183 ;; Auto vars:     Size  Location     Type
  7184 ;;		None
  7185 ;; Return value:  Size  Location     Type
  7186 ;;                  1    wreg      void 
  7187 ;; Registers used:
  7188 ;;		wreg, status,2
  7189 ;; Tracked objects:
  7190 ;;		On entry : 0/0
  7191 ;;		On exit  : 0/0
  7192 ;;		Unchanged: 0/0
  7193 ;; Data sizes:     COMRAM   BANK0   BANK1   BANK2   BANK3   BANK4   BANK5
  7194 ;;      Params:         0       0       0       0       0       0       0
  7195 ;;      Locals:         0       0       0       0       0       0       0
  7196 ;;      Temps:          0       0       0       0       0       0       0
  7197 ;;      Totals:         0       0       0       0       0       0       0
  7198 ;;Total ram usage:        0 bytes
  7199 ;; Hardware stack levels used: 1
  7200 ;; Hardware stack levels required when called: 5
  7201 ;; This function calls:
  7202 ;;		Nothing
  7203 ;; This function is called by:
  7204 ;;		_Ds1307Init
  7205 ;; This function uses a non-reentrant model
  7206 ;;
  7207                           
  7208                           	psect	text42
  7209   0029C6                     __ptext42:
  7210                           	callstack 0
  7211   0029C6                     _I2cInit:
  7212                           	callstack 23
  7213   0029C6                     
  7214                           ;I2C.c: 12:     SSPSTATbits.SMP = 1;
  7215   0029C6  8EC7               	bsf	199,7,c	;volatile
  7216                           
  7217                           ;I2C.c: 13:     SSPSTATbits.CKE = 0;
  7218   0029C8  9CC7               	bcf	199,6,c	;volatile
  7219                           
  7220                           ;I2C.c: 15:     SSPCON1bits.SSPEN = 1;
  7221   0029CA  8AC6               	bsf	198,5,c	;volatile
  7222   0029CC                     
  7223                           ;I2C.c: 16:     SSPCON1bits.SSPM = 0b1000;
  7224   0029CC  50C6               	movf	198,w,c	;volatile
  7225   0029CE  0BF0               	andlw	-16
  7226   0029D0  0908               	iorlw	8
  7227   0029D2  6EC6               	movwf	198,c	;volatile
  7228                           
  7229                           ;I2C.c: 18:     SSPADD = 99;
  7230   0029D4  0E63               	movlw	99
  7231   0029D6  6EC8               	movwf	200,c	;volatile
  7232   0029D8  0012               	return		;funcret
  7233   0029DA                     __end_of_I2cInit:
  7234                           	callstack 0
  7235                           
  7236 ;; *************** function _DetectStatus *****************
  7237 ;; Defined at:
  7238 ;;		line 137 in file "Main.c"
  7239 ;; Parameters:    Size  Location     Type
  7240 ;;		None
  7241 ;; Auto vars:     Size  Location     Type
  7242 ;;		None
  7243 ;; Return value:  Size  Location     Type
  7244 ;;                  1    wreg      void 
  7245 ;; Registers used:
  7246 ;;		wreg, status,2
  7247 ;; Tracked objects:
  7248 ;;		On entry : 0/0
  7249 ;;		On exit  : 0/0
  7250 ;;		Unchanged: 0/0
  7251 ;; Data sizes:     COMRAM   BANK0   BANK1   BANK2   BANK3   BANK4   BANK5
  7252 ;;      Params:         0       0       0       0       0       0       0
  7253 ;;      Locals:         0       0       0       0       0       0       0
  7254 ;;      Temps:          0       0       0       0       0       0       0
  7255 ;;      Totals:         0       0       0       0       0       0       0
  7256 ;;Total ram usage:        0 bytes
  7257 ;; Hardware stack levels used: 1
  7258 ;; Hardware stack levels required when called: 5
  7259 ;; This function calls:
  7260 ;;		Nothing
  7261 ;; This function is called by:
  7262 ;;		_DeviceInit
  7263 ;; This function uses a non-reentrant model
  7264 ;;
  7265                           
  7266                           	psect	text43
  7267   0023AE                     __ptext43:
  7268                           	callstack 0
  7269   0023AE                     _DetectStatus:
  7270                           	callstack 24
  7271   0023AE                     
  7272                           ;Main.c: 138:     TRISAbits.TRISA0 = 1;
  7273   0023AE  8092               	bsf	146,0,c	;volatile
  7274                           
  7275                           ;Main.c: 139:     TRISAbits.TRISA1 = 1;
  7276   0023B0  8292               	bsf	146,1,c	;volatile
  7277                           
  7278                           ;Main.c: 140:     TRISAbits.TRISA2 = 1;
  7279   0023B2  8492               	bsf	146,2,c	;volatile
  7280                           
  7281                           ;Main.c: 141:     TRISAbits.TRISA5 = 1;
  7282   0023B4  8A92               	bsf	146,5,c	;volatile
  7283                           
  7284                           ;Main.c: 142:     if( PORTAbits.RA0 == 1 && PORTAbits.RA1 == 1 && PORTAbits.RA2 == 1 && 
      +                          PORTAbits.RA5 == 1 ) {
  7285   0023B6  A080               	btfss	128,0,c	;volatile
  7286   0023B8  EFE0  F011         	goto	u4091
  7287   0023BC  EFE2  F011         	goto	u4090
  7288   0023C0                     u4091:
  7289   0023C0  EFFD  F011         	goto	l378
  7290   0023C4                     u4090:
  7291   0023C4  A280               	btfss	128,1,c	;volatile
  7292   0023C6  EFE7  F011         	goto	u4101
  7293   0023CA  EFE9  F011         	goto	u4100
  7294   0023CE                     u4101:
  7295   0023CE  EFFD  F011         	goto	l378
  7296   0023D2                     u4100:
  7297   0023D2  A480               	btfss	128,2,c	;volatile
  7298   0023D4  EFEE  F011         	goto	u4111
  7299   0023D8  EFF0  F011         	goto	u4110
  7300   0023DC                     u4111:
  7301   0023DC  EFFD  F011         	goto	l378
  7302   0023E0                     u4110:
  7303   0023E0  AA80               	btfss	128,5,c	;volatile
  7304   0023E2  EFF5  F011         	goto	u4121
  7305   0023E6  EFF7  F011         	goto	u4120
  7306   0023EA                     u4121:
  7307   0023EA  EFFD  F011         	goto	l378
  7308   0023EE                     u4120:
  7309   0023EE                     
  7310                           ;Main.c: 143:         SYSTEM_STATE_FLG = 201; blink_enable_flg = 0;
  7311   0023EE  0EC9               	movlw	201
  7312   0023F0  6E48               	movwf	_SYSTEM_STATE_FLG^0,c
  7313   0023F2  0E00               	movlw	0
  7314   0023F4  6E32               	movwf	_blink_enable_flg^0,c
  7315                           
  7316                           ;Main.c: 144:     }
  7317   0023F6  EF1D  F012         	goto	l381
  7318   0023FA                     l378:
  7319   0023FA  B080               	btfsc	128,0,c	;volatile
  7320   0023FC  EF02  F012         	goto	u4131
  7321   002400  EF04  F012         	goto	u4130
  7322   002404                     u4131:
  7323   002404  EF1D  F012         	goto	l381
  7324   002408                     u4130:
  7325   002408  A280               	btfss	128,1,c	;volatile
  7326   00240A  EF09  F012         	goto	u4141
  7327   00240E  EF0B  F012         	goto	u4140
  7328   002412                     u4141:
  7329   002412  EF1D  F012         	goto	l381
  7330   002416                     u4140:
  7331   002416  A480               	btfss	128,2,c	;volatile
  7332   002418  EF10  F012         	goto	u4151
  7333   00241C  EF12  F012         	goto	u4150
  7334   002420                     u4151:
  7335   002420  EF1D  F012         	goto	l381
  7336   002424                     u4150:
  7337   002424  AA80               	btfss	128,5,c	;volatile
  7338   002426  EF17  F012         	goto	u4161
  7339   00242A  EF19  F012         	goto	u4160
  7340   00242E                     u4161:
  7341   00242E  EF1D  F012         	goto	l381
  7342   002432                     u4160:
  7343   002432                     
  7344                           ;Main.c: 146:         SYSTEM_STATE_FLG = 100; blink_enable_flg = 0;
  7345   002432  0E64               	movlw	100
  7346   002434  6E48               	movwf	_SYSTEM_STATE_FLG^0,c
  7347   002436  0E00               	movlw	0
  7348   002438  6E32               	movwf	_blink_enable_flg^0,c
  7349   00243A                     l381:
  7350   00243A  0012               	return		;funcret
  7351   00243C                     __end_of_DetectStatus:
  7352                           	callstack 0
  7353                           
  7354 ;; *************** function _BlinkDisable *****************
  7355 ;; Defined at:
  7356 ;;		line 96 in file "Display.c"
  7357 ;; Parameters:    Size  Location     Type
  7358 ;;		None
  7359 ;; Auto vars:     Size  Location     Type
  7360 ;;  i               1   18[COMRAM] unsigned char 
  7361 ;; Return value:  Size  Location     Type
  7362 ;;                  1    wreg      void 
  7363 ;; Registers used:
  7364 ;;		wreg, fsr2l, fsr2h, status,2, status,0
  7365 ;; Tracked objects:
  7366 ;;		On entry : 0/0
  7367 ;;		On exit  : 0/0
  7368 ;;		Unchanged: 0/0
  7369 ;; Data sizes:     COMRAM   BANK0   BANK1   BANK2   BANK3   BANK4   BANK5
  7370 ;;      Params:         0       0       0       0       0       0       0
  7371 ;;      Locals:         1       0       0       0       0       0       0
  7372 ;;      Temps:          0       0       0       0       0       0       0
  7373 ;;      Totals:         1       0       0       0       0       0       0
  7374 ;;Total ram usage:        1 bytes
  7375 ;; Hardware stack levels used: 1
  7376 ;; Hardware stack levels required when called: 5
  7377 ;; This function calls:
  7378 ;;		Nothing
  7379 ;; This function is called by:
  7380 ;;		_main
  7381 ;; This function uses a non-reentrant model
  7382 ;;
  7383                           
  7384                           	psect	text44
  7385   0028E2                     __ptext44:
  7386                           	callstack 0
  7387   0028E2                     _BlinkDisable:
  7388                           	callstack 25
  7389   0028E2                     
  7390                           ;Display.c: 97:     for( unsigned char i = 0; i < 7; i ++ ){
  7391   0028E2  0E00               	movlw	0
  7392   0028E4  6E5F               	movwf	BlinkDisable@i^0,c
  7393   0028E6                     l7309:
  7394                           
  7395                           ;Display.c: 98:         blink_pos[ i ] = 0;
  7396   0028E6  0E80               	movlw	low _blink_pos
  7397   0028E8  245F               	addwf	BlinkDisable@i^0,w,c
  7398   0028EA  6ED9               	movwf	fsr2l,c
  7399   0028EC  6ADA               	clrf	fsr2h,c
  7400   0028EE  0E00               	movlw	high _blink_pos
  7401   0028F0  22DA               	addwfc	fsr2h,f,c
  7402   0028F2  6ADF               	clrf	indf2,c
  7403   0028F4                     
  7404                           ;Display.c: 99:     }
  7405   0028F4  2A5F               	incf	BlinkDisable@i^0,f,c
  7406   0028F6  0E06               	movlw	6
  7407   0028F8  645F               	cpfsgt	BlinkDisable@i^0,c
  7408   0028FA  EF81  F014         	goto	u5221
  7409   0028FE  EF83  F014         	goto	u5220
  7410   002902                     u5221:
  7411   002902  EF73  F014         	goto	l7309
  7412   002906                     u5220:
  7413   002906  0012               	return		;funcret
  7414   002908                     __end_of_BlinkDisable:
  7415                           	callstack 0
  7416                           
  7417 ;; *************** function _low_isr *****************
  7418 ;; Defined at:
  7419 ;;		line 60 in file "Interrupts.c"
  7420 ;; Parameters:    Size  Location     Type
  7421 ;;		None
  7422 ;; Auto vars:     Size  Location     Type
  7423 ;;		None
  7424 ;; Return value:  Size  Location     Type
  7425 ;;                  1    wreg      void 
  7426 ;; Registers used:
  7427 ;;		wreg, status,2, status,0, cstack
  7428 ;; Tracked objects:
  7429 ;;		On entry : 0/0
  7430 ;;		On exit  : 0/0
  7431 ;;		Unchanged: 0/0
  7432 ;; Data sizes:     COMRAM   BANK0   BANK1   BANK2   BANK3   BANK4   BANK5
  7433 ;;      Params:         0       0       0       0       0       0       0
  7434 ;;      Locals:         0       0       0       0       0       0       0
  7435 ;;      Temps:          3       0       0       0       0       0       0
  7436 ;;      Totals:         3       0       0       0       0       0       0
  7437 ;;Total ram usage:        3 bytes
  7438 ;; Hardware stack levels used: 1
  7439 ;; Hardware stack levels required when called: 4
  7440 ;; This function calls:
  7441 ;;		_ScanCounter
  7442 ;; This function is called by:
  7443 ;;		Interrupt level 1
  7444 ;; This function uses a non-reentrant model
  7445 ;;
  7446                           
  7447                           	psect	intcodelo
  7448   000018                     __pintcodelo:
  7449                           	callstack 0
  7450   000018                     _low_isr:
  7451                           	callstack 20
  7452                           
  7453                           ;incstack = 0
  7454   000018  806D               	bsf	int$flags,0,c	;set compiler interrupt flag (level 1)
  7455   00001A  CFD8 F05C          	movff	status,??_low_isr
  7456   00001E  CFE8 F05D          	movff	wreg,??_low_isr+1
  7457   000022  CFE0 F05E          	movff	bsr,??_low_isr+2
  7458   000026                     
  7459                           ;Interrupts.c: 62:     if( INTCON3bits.INT2IE && INTCON3bits.INT2IF ) {
  7460   000026  A8F0               	btfss	240,4,c	;volatile
  7461   000028  EF18  F000         	goto	i1u244_21
  7462   00002C  EF1A  F000         	goto	i1u244_20
  7463   000030                     i1u244_21:
  7464   000030  EF24  F000         	goto	i1l691
  7465   000034                     i1u244_20:
  7466   000034  A2F0               	btfss	240,1,c	;volatile
  7467   000036  EF1F  F000         	goto	i1u245_21
  7468   00003A  EF21  F000         	goto	i1u245_20
  7469   00003E                     i1u245_21:
  7470   00003E  EF24  F000         	goto	i1l691
  7471   000042                     i1u245_20:
  7472   000042                     
  7473                           ;Interrupts.c: 63:         INTCON3bits.INT2IF = 0;
  7474   000042  92F0               	bcf	240,1,c	;volatile
  7475   000044                     
  7476                           ;Interrupts.c: 65:         ScanCounter();
  7477   000044  EC6A  F00E         	call	_ScanCounter	;wreg free
  7478   000048                     i1l691:
  7479   000048  C05E  FFE0         	movff	??_low_isr+2,bsr
  7480   00004C  C05D  FFE8         	movff	??_low_isr+1,wreg
  7481   000050  C05C  FFD8         	movff	??_low_isr,status
  7482   000054  906D               	bcf	int$flags,0,c	;clear compiler interrupt flag (level 1)
  7483   000056  0010               	retfie	
  7484   000058                     __end_of_low_isr:
  7485                           	callstack 0
  7486                           
  7487 ;; *************** function _ScanCounter *****************
  7488 ;; Defined at:
  7489 ;;		line 79 in file "Counter.c"
  7490 ;; Parameters:    Size  Location     Type
  7491 ;;		None
  7492 ;; Auto vars:     Size  Location     Type
  7493 ;;		None
  7494 ;; Return value:  Size  Location     Type
  7495 ;;                  1    wreg      void 
  7496 ;; Registers used:
  7497 ;;		wreg, status,2, status,0
  7498 ;; Tracked objects:
  7499 ;;		On entry : 0/0
  7500 ;;		On exit  : 0/0
  7501 ;;		Unchanged: 0/0
  7502 ;; Data sizes:     COMRAM   BANK0   BANK1   BANK2   BANK3   BANK4   BANK5
  7503 ;;      Params:         0       0       0       0       0       0       0
  7504 ;;      Locals:         0       0       0       0       0       0       0
  7505 ;;      Temps:          0       0       0       0       0       0       0
  7506 ;;      Totals:         0       0       0       0       0       0       0
  7507 ;;Total ram usage:        0 bytes
  7508 ;; Hardware stack levels used: 1
  7509 ;; Hardware stack levels required when called: 3
  7510 ;; This function calls:
  7511 ;;		Nothing
  7512 ;; This function is called by:
  7513 ;;		_low_isr
  7514 ;; This function uses a non-reentrant model
  7515 ;;
  7516                           
  7517                           	psect	text46
  7518   001CD4                     __ptext46:
  7519                           	callstack 0
  7520   001CD4                     _ScanCounter:
  7521                           	callstack 20
  7522   001CD4                     
  7523                           ;Counter.c: 80:     if(!counter_enable_flg) return;
  7524   001CD4  5038               	movf	_counter_enable_flg^0,w,c
  7525   001CD6  A4D8               	btfss	status,2,c
  7526   001CD8  EF70  F00E         	goto	i1u189_21
  7527   001CDC  EF72  F00E         	goto	i1u189_20
  7528   001CE0                     i1u189_21:
  7529   001CE0  EF74  F00E         	goto	i1l4143
  7530   001CE4                     i1u189_20:
  7531   001CE4  EFD6  F00E         	goto	i1l804
  7532   001CE8                     i1l4143:
  7533                           
  7534                           ;Counter.c: 81:     if( counter_direction_flg == 1 ){
  7535   001CE8  0437               	decf	_counter_direction_flg^0,w,c
  7536   001CEA  A4D8               	btfss	status,2,c
  7537   001CEC  EF7A  F00E         	goto	i1u190_21
  7538   001CF0  EF7C  F00E         	goto	i1u190_20
  7539   001CF4                     i1u190_21:
  7540   001CF4  EF97  F00E         	goto	i1l4159
  7541   001CF8                     i1u190_20:
  7542   001CF8                     
  7543                           ;Counter.c: 82:         counter_up_second ++;
  7544   001CF8  2A39               	incf	_counter_up_second^0,f,c
  7545   001CFA                     
  7546                           ;Counter.c: 83:         if( counter_up_second == 60 ){
  7547   001CFA  0E3C               	movlw	60
  7548   001CFC  1839               	xorwf	_counter_up_second^0,w,c
  7549   001CFE  A4D8               	btfss	status,2,c
  7550   001D00  EF84  F00E         	goto	i1u191_21
  7551   001D04  EF86  F00E         	goto	i1u191_20
  7552   001D08                     i1u191_21:
  7553   001D08  EFD6  F00E         	goto	i1l804
  7554   001D0C                     i1u191_20:
  7555   001D0C                     
  7556                           ;Counter.c: 84:             counter_up_second = 0;
  7557   001D0C  0E00               	movlw	0
  7558   001D0E  6E39               	movwf	_counter_up_second^0,c
  7559   001D10                     
  7560                           ;Counter.c: 85:             counter_up_minute ++;
  7561   001D10  2A3A               	incf	_counter_up_minute^0,f,c
  7562   001D12                     
  7563                           ;Counter.c: 86:             if(counter_up_minute == 60){
  7564   001D12  0E3C               	movlw	60
  7565   001D14  183A               	xorwf	_counter_up_minute^0,w,c
  7566   001D16  A4D8               	btfss	status,2,c
  7567   001D18  EF90  F00E         	goto	i1u192_21
  7568   001D1C  EF92  F00E         	goto	i1u192_20
  7569   001D20                     i1u192_21:
  7570   001D20  EFD6  F00E         	goto	i1l804
  7571   001D24                     i1u192_20:
  7572   001D24                     
  7573                           ;Counter.c: 87:                 counter_up_minute = 0;
  7574   001D24  0E00               	movlw	0
  7575   001D26  6E3A               	movwf	_counter_up_minute^0,c
  7576   001D28                     
  7577                           ;Counter.c: 88:                 counter_up_hour ++;
  7578   001D28  2A3B               	incf	_counter_up_hour^0,f,c
  7579   001D2A  EFD6  F00E         	goto	i1l804
  7580   001D2E                     i1l4159:
  7581   001D2E  5037               	movf	_counter_direction_flg^0,w,c
  7582   001D30  A4D8               	btfss	status,2,c
  7583   001D32  EF9D  F00E         	goto	i1u193_21
  7584   001D36  EF9F  F00E         	goto	i1u193_20
  7585   001D3A                     i1u193_21:
  7586   001D3A  EFD6  F00E         	goto	i1l804
  7587   001D3E                     i1u193_20:
  7588   001D3E                     
  7589                           ;Counter.c: 93:         if( counter_down_hour == 0 && counter_down_minute == 0 && counte
      +                          r_down_second == 0 ) {
  7590   001D3E  5041               	movf	_counter_down_hour^0,w,c
  7591   001D40  A4D8               	btfss	status,2,c
  7592   001D42  EFA5  F00E         	goto	i1u194_21
  7593   001D46  EFA7  F00E         	goto	i1u194_20
  7594   001D4A                     i1u194_21:
  7595   001D4A  EFBF  F00E         	goto	i1l4171
  7596   001D4E                     i1u194_20:
  7597   001D4E  5040               	movf	_counter_down_minute^0,w,c
  7598   001D50  A4D8               	btfss	status,2,c
  7599   001D52  EFAD  F00E         	goto	i1u195_21
  7600   001D56  EFAF  F00E         	goto	i1u195_20
  7601   001D5A                     i1u195_21:
  7602   001D5A  EFBF  F00E         	goto	i1l4171
  7603   001D5E                     i1u195_20:
  7604   001D5E  503F               	movf	_counter_down_second^0,w,c
  7605   001D60  A4D8               	btfss	status,2,c
  7606   001D62  EFB5  F00E         	goto	i1u196_21
  7607   001D66  EFB7  F00E         	goto	i1u196_20
  7608   001D6A                     i1u196_21:
  7609   001D6A  EFBF  F00E         	goto	i1l4171
  7610   001D6E                     i1u196_20:
  7611   001D6E                     
  7612                           ;Counter.c: 94:             counter_enable_flg = 0;
  7613   001D6E  0E00               	movlw	0
  7614   001D70  6E38               	movwf	_counter_enable_flg^0,c
  7615                           
  7616                           ;Counter.c: 95:             counter_down_comp_flg = 1; counter_down_comp_cnt = 0;
  7617   001D72  0E01               	movlw	1
  7618   001D74  6E34               	movwf	_counter_down_comp_flg^0,c
  7619   001D76  0E00               	movlw	0
  7620   001D78  6E33               	movwf	_counter_down_comp_cnt^0,c
  7621   001D7A  EFD6  F00E         	goto	i1l804
  7622   001D7E                     i1l4171:
  7623                           
  7624                           ;Counter.c: 98:         counter_down_comp_flg = 0;
  7625   001D7E  0E00               	movlw	0
  7626   001D80  6E34               	movwf	_counter_down_comp_flg^0,c
  7627   001D82                     
  7628                           ;Counter.c: 99:         counter_down_second --;
  7629   001D82  063F               	decf	_counter_down_second^0,f,c
  7630   001D84                     
  7631                           ;Counter.c: 100:         if( counter_down_second < 0 ) {
  7632   001D84  BE3F               	btfsc	_counter_down_second^0,7,c
  7633   001D86  EFC9  F00E         	goto	i1u197_20
  7634   001D8A  EFC7  F00E         	goto	i1u197_21
  7635   001D8E                     i1u197_21:
  7636   001D8E  EFD6  F00E         	goto	i1l804
  7637   001D92                     i1u197_20:
  7638   001D92                     
  7639                           ;Counter.c: 101:             counter_down_second = 59;
  7640   001D92  0E3B               	movlw	59
  7641   001D94  6E3F               	movwf	_counter_down_second^0,c
  7642   001D96                     
  7643                           ;Counter.c: 102:             counter_down_minute --;
  7644   001D96  0640               	decf	_counter_down_minute^0,f,c
  7645   001D98                     
  7646                           ;Counter.c: 103:             if( counter_down_minute < 0 ){
  7647   001D98  BE40               	btfsc	_counter_down_minute^0,7,c
  7648   001D9A  EFD3  F00E         	goto	i1u198_20
  7649   001D9E  EFD1  F00E         	goto	i1u198_21
  7650   001DA2                     i1u198_21:
  7651   001DA2  EFD6  F00E         	goto	i1l804
  7652   001DA6                     i1u198_20:
  7653   001DA6                     
  7654                           ;Counter.c: 104:                 counter_down_minute = 59;
  7655   001DA6  0E3B               	movlw	59
  7656   001DA8  6E40               	movwf	_counter_down_minute^0,c
  7657   001DAA                     
  7658                           ;Counter.c: 105:                 counter_down_hour --;
  7659   001DAA  0641               	decf	_counter_down_hour^0,f,c
  7660   001DAC                     i1l804:
  7661   001DAC  0012               	return		;funcret
  7662   001DAE                     __end_of_ScanCounter:
  7663                           	callstack 0
  7664                           
  7665 ;; *************** function _high_isr *****************
  7666 ;; Defined at:
  7667 ;;		line 20 in file "Interrupts.c"
  7668 ;; Parameters:    Size  Location     Type
  7669 ;;		None
  7670 ;; Auto vars:     Size  Location     Type
  7671 ;;		None
  7672 ;; Return value:  Size  Location     Type
  7673 ;;                  1    wreg      void 
  7674 ;; Registers used:
  7675 ;;		wreg, fsr2l, fsr2h, status,2, status,0, cstack
  7676 ;; Tracked objects:
  7677 ;;		On entry : 0/0
  7678 ;;		On exit  : 0/0
  7679 ;;		Unchanged: 0/0
  7680 ;; Data sizes:     COMRAM   BANK0   BANK1   BANK2   BANK3   BANK4   BANK5
  7681 ;;      Params:         0       0       0       0       0       0       0
  7682 ;;      Locals:         0       0       0       0       0       0       0
  7683 ;;      Temps:          4       0       0       0       0       0       0
  7684 ;;      Totals:         4       0       0       0       0       0       0
  7685 ;;Total ram usage:        4 bytes
  7686 ;; Hardware stack levels used: 1
  7687 ;; Hardware stack levels required when called: 2
  7688 ;; This function calls:
  7689 ;;		_ScanButtons
  7690 ;;		_ScanDisplay
  7691 ;;		___lwdiv
  7692 ;;		i2_ScanCounter
  7693 ;;		i2_WriteTimer0
  7694 ;; This function is called by:
  7695 ;;		Interrupt level 2
  7696 ;; This function uses a non-reentrant model
  7697 ;;
  7698                           
  7699                           	psect	intcode
  7700   000008                     __pintcode:
  7701                           	callstack 0
  7702   000008                     _high_isr:
  7703                           	callstack 20
  7704                           
  7705                           ;incstack = 0
  7706   000008  826D               	bsf	int$flags,1,c	;set compiler interrupt flag (level 2)
  7707   00000A  ED91  F00C         	call	int_func,f	;refresh shadow registers
  7708                           
  7709                           	psect	intcode_body
  7710   001922                     __pintcode_body:
  7711                           	callstack 20
  7712   001922                     int_func:
  7713                           	callstack 20
  7714   001922  0006               	pop		; remove dummy address from shadow register refresh
  7715   001924  CFD9 F05A          	movff	fsr2l,??_high_isr+2
  7716   001928  CFDA F05B          	movff	fsr2h,??_high_isr+3
  7717   00192C                     
  7718                           ;Interrupts.c: 22:     if( INTCONbits.TMR0IE && INTCONbits.TMR0IF ) {
  7719   00192C  AAF2               	btfss	242,5,c	;volatile
  7720   00192E  EF9B  F00C         	goto	i2u572_41
  7721   001932  EF9D  F00C         	goto	i2u572_40
  7722   001936                     i2u572_41:
  7723   001936  EF2D  F00D         	goto	i2l669
  7724   00193A                     i2u572_40:
  7725   00193A  A4F2               	btfss	242,2,c	;volatile
  7726   00193C  EFA2  F00C         	goto	i2u573_41
  7727   001940  EFA4  F00C         	goto	i2u573_40
  7728   001944                     i2u573_41:
  7729   001944  EF2D  F00D         	goto	i2l669
  7730   001948                     i2u573_40:
  7731   001948                     
  7732                           ;Interrupts.c: 23:         INTCONbits.TMR0IF = 0;
  7733   001948  94F2               	bcf	242,2,c	;volatile
  7734                           
  7735                           ;Interrupts.c: 25:         switch( display_cnt ){
  7736   00194A  EFB7  F00C         	goto	i2l7911
  7737   00194E                     i2l7893:
  7738   00194E  0EFF               	movlw	255
  7739   001950  6E4E               	movwf	(i2WriteTimer0@timer0+1)^0,c
  7740   001952  0ECD               	movlw	205
  7741   001954  6E4D               	movwf	i2WriteTimer0@timer0^0,c
  7742   001956  EC1A  F015         	call	i2_WriteTimer0	;wreg free
  7743   00195A  EFE4  F00C         	goto	i2l7913
  7744   00195E                     i2l7907:
  7745   00195E  0EFF               	movlw	255
  7746   001960  6E4E               	movwf	(i2WriteTimer0@timer0+1)^0,c
  7747   001962  0E05               	movlw	5
  7748   001964  6E4D               	movwf	i2WriteTimer0@timer0^0,c
  7749   001966  EC1A  F015         	call	i2_WriteTimer0	;wreg free
  7750   00196A  EFE4  F00C         	goto	i2l7913
  7751   00196E                     i2l7911:
  7752   00196E  5031               	movf	_display_cnt^0,w,c
  7753   001970  6E58               	movwf	??_high_isr^0,c
  7754   001972  6A59               	clrf	(??_high_isr+1)^0,c
  7755                           
  7756                           ; Switch on 2 bytes has been partitioned into a top level switch of size 1, and 1 sub-sw
      +                          itches
  7757                           ; Switch size 1, requested type "simple"
  7758                           ; Number of cases is 1, Range of values is 0 to 0
  7759                           ; switch strategies available:
  7760                           ; Name         Instructions Cycles
  7761                           ; simple_byte            4     3 (average)
  7762                           ;	Chosen strategy is simple_byte
  7763   001974  5059               	movf	(??_high_isr+1)^0,w,c
  7764   001976  0A00               	xorlw	0	; case 0
  7765   001978  B4D8               	btfsc	status,2,c
  7766   00197A  EFC1  F00C         	goto	i2l10651
  7767   00197E  EFE4  F00C         	goto	i2l7913
  7768   001982                     i2l10651:
  7769                           
  7770                           ; Switch size 1, requested type "simple"
  7771                           ; Number of cases is 8, Range of values is 0 to 7
  7772                           ; switch strategies available:
  7773                           ; Name         Instructions Cycles
  7774                           ; simple_byte           25    13 (average)
  7775                           ;	Chosen strategy is simple_byte
  7776   001982  5058               	movf	??_high_isr^0,w,c
  7777   001984  0A00               	xorlw	0	; case 0
  7778   001986  B4D8               	btfsc	status,2,c
  7779   001988  EFA7  F00C         	goto	i2l7893
  7780   00198C  0A01               	xorlw	1	; case 1
  7781   00198E  B4D8               	btfsc	status,2,c
  7782   001990  EFA7  F00C         	goto	i2l7893
  7783   001994  0A03               	xorlw	3	; case 2
  7784   001996  B4D8               	btfsc	status,2,c
  7785   001998  EFA7  F00C         	goto	i2l7893
  7786   00199C  0A01               	xorlw	1	; case 3
  7787   00199E  B4D8               	btfsc	status,2,c
  7788   0019A0  EFA7  F00C         	goto	i2l7893
  7789   0019A4  0A07               	xorlw	7	; case 4
  7790   0019A6  B4D8               	btfsc	status,2,c
  7791   0019A8  EFA7  F00C         	goto	i2l7893
  7792   0019AC  0A01               	xorlw	1	; case 5
  7793   0019AE  B4D8               	btfsc	status,2,c
  7794   0019B0  EFA7  F00C         	goto	i2l7893
  7795   0019B4  0A03               	xorlw	3	; case 6
  7796   0019B6  B4D8               	btfsc	status,2,c
  7797   0019B8  EFA7  F00C         	goto	i2l7893
  7798   0019BC  0A01               	xorlw	1	; case 7
  7799   0019BE  B4D8               	btfsc	status,2,c
  7800   0019C0  EFAF  F00C         	goto	i2l7907
  7801   0019C4  EFE4  F00C         	goto	i2l7913
  7802   0019C8                     i2l7913:
  7803                           
  7804                           ;Interrupts.c: 35:         ScanDisplay();
  7805   0019C8  EC27  F00B         	call	_ScanDisplay	;wreg free
  7806   0019CC                     
  7807                           ;Interrupts.c: 36:         ScanButtons();
  7808   0019CC  EC64  F00A         	call	_ScanButtons	;wreg free
  7809   0019D0                     
  7810                           ;Interrupts.c: 37:         cnt ++;
  7811   0019D0  0100               	movlb	0	; () banked
  7812   0019D2  4BB6               	infsnz	_cnt& (0+255),f,b
  7813   0019D4  2BB7               	incf	(_cnt+1)& (0+255),f,b
  7814   0019D6                     
  7815                           ; BSR set to: 0
  7816                           ;Interrupts.c: 38:         if( cnt == 100 ){
  7817   0019D6  0E64               	movlw	100
  7818   0019D8  19B6               	xorwf	_cnt& (0+255),w,b
  7819   0019DA  11B7               	iorwf	(_cnt+1)& (0+255),w,b
  7820   0019DC  A4D8               	btfss	status,2,c
  7821   0019DE  EFF3  F00C         	goto	i2u574_41
  7822   0019E2  EFF5  F00C         	goto	i2u574_40
  7823   0019E6                     i2u574_41:
  7824   0019E6  EF3E  F00D         	goto	i2l684
  7825   0019EA                     i2u574_40:
  7826   0019EA                     
  7827                           ; BSR set to: 0
  7828                           ;Interrupts.c: 39:             SYSTEM_ACTION_FLG.DISP_UPDATE_ENABLE = 1; cnt = 0;
  7829   0019EA  8049               	bsf	_SYSTEM_ACTION_FLG^0,0,c	;volatile
  7830   0019EC                     
  7831                           ; BSR set to: 0
  7832   0019EC  0E00               	movlw	0
  7833   0019EE  6FB7               	movwf	(_cnt+1)& (0+255),b
  7834   0019F0  0E00               	movlw	0
  7835   0019F2  6FB6               	movwf	_cnt& (0+255),b
  7836                           
  7837                           ;Interrupts.c: 40:             if( btn_long_press_verify_flg ){
  7838   0019F4  502C               	movf	_btn_long_press_verify_flg^0,w,c
  7839   0019F6  B4D8               	btfsc	status,2,c
  7840   0019F8  EF00  F00D         	goto	i2u575_41
  7841   0019FC  EF02  F00D         	goto	i2u575_40
  7842   001A00                     i2u575_41:
  7843   001A00  EF23  F00D         	goto	i2l7933
  7844   001A04                     i2u575_40:
  7845   001A04                     
  7846                           ; BSR set to: 0
  7847                           ;Interrupts.c: 41:                 long_pressed_cnt ++; if( long_pressed_cnt > 10 ) long
      +                          _pressed_cnt = 10;
  7848   001A04  4BE4               	infsnz	_long_pressed_cnt& (0+255),f,b
  7849   001A06  2BE5               	incf	(_long_pressed_cnt+1)& (0+255),f,b
  7850   001A08                     
  7851                           ; BSR set to: 0
  7852   001A08  51E5               	movf	(_long_pressed_cnt+1)& (0+255),w,b
  7853   001A0A  E109               	bnz	i2u576_40
  7854   001A0C  0E0B               	movlw	11
  7855   001A0E  5DE4               	subwf	_long_pressed_cnt& (0+255),w,b
  7856   001A10  A0D8               	btfss	status,0,c
  7857   001A12  EF0D  F00D         	goto	i2u576_41
  7858   001A16  EF0F  F00D         	goto	i2u576_40
  7859   001A1A                     i2u576_41:
  7860   001A1A  EF13  F00D         	goto	i2l7931
  7861   001A1E                     i2u576_40:
  7862   001A1E                     
  7863                           ; BSR set to: 0
  7864   001A1E  0E00               	movlw	0
  7865   001A20  6FE5               	movwf	(_long_pressed_cnt+1)& (0+255),b
  7866   001A22  0E0A               	movlw	10
  7867   001A24  6FE4               	movwf	_long_pressed_cnt& (0+255),b
  7868   001A26                     i2l7931:
  7869                           
  7870                           ; BSR set to: 0
  7871                           ;Interrupts.c: 42:                 CONTINUE_PRESSED_TIME = 100 / long_pressed_cnt;
  7872   001A26  0E00               	movlw	0
  7873   001A28  6E4E               	movwf	(___lwdiv@dividend+1)^0,c
  7874   001A2A  0E64               	movlw	100
  7875   001A2C  6E4D               	movwf	___lwdiv@dividend^0,c
  7876   001A2E  C0E4  F04F         	movff	_long_pressed_cnt,___lwdiv@divisor
  7877   001A32  C0E5  F050         	movff	_long_pressed_cnt+1,___lwdiv@divisor+1
  7878   001A36  ECE7  F012         	call	___lwdiv	;wreg free
  7879   001A3A  C04D  F008         	movff	?___lwdiv,_CONTINUE_PRESSED_TIME
  7880   001A3E  C04E  F009         	movff	?___lwdiv+1,_CONTINUE_PRESSED_TIME+1
  7881                           
  7882                           ;Interrupts.c: 43:             }
  7883   001A42  EF3E  F00D         	goto	i2l684
  7884   001A46                     i2l7933:
  7885                           
  7886                           ; BSR set to: 0
  7887                           ;Interrupts.c: 45:                 long_pressed_cnt = 0;
  7888   001A46  0E00               	movlw	0
  7889   001A48  6FE5               	movwf	(_long_pressed_cnt+1)& (0+255),b
  7890   001A4A  0E00               	movlw	0
  7891   001A4C  6FE4               	movwf	_long_pressed_cnt& (0+255),b
  7892                           
  7893                           ;Interrupts.c: 46:                 CONTINUE_PRESSED_TIME = 100;
  7894   001A4E  0E00               	movlw	0
  7895   001A50  6E09               	movwf	(_CONTINUE_PRESSED_TIME+1)^0,c
  7896   001A52  0E64               	movlw	100
  7897   001A54  6E08               	movwf	_CONTINUE_PRESSED_TIME^0,c
  7898   001A56  EF3E  F00D         	goto	i2l684
  7899   001A5A                     i2l669:
  7900                           
  7901                           ;Interrupts.c: 51:     if( INTCON3bits.INT2IE && INTCON3bits.INT2IF ) {
  7902   001A5A  A8F0               	btfss	240,4,c	;volatile
  7903   001A5C  EF32  F00D         	goto	i2u577_41
  7904   001A60  EF34  F00D         	goto	i2u577_40
  7905   001A64                     i2u577_41:
  7906   001A64  EF3E  F00D         	goto	i2l684
  7907   001A68                     i2u577_40:
  7908   001A68  A2F0               	btfss	240,1,c	;volatile
  7909   001A6A  EF39  F00D         	goto	i2u578_41
  7910   001A6E  EF3B  F00D         	goto	i2u578_40
  7911   001A72                     i2u578_41:
  7912   001A72  EF3E  F00D         	goto	i2l684
  7913   001A76                     i2u578_40:
  7914   001A76                     
  7915                           ;Interrupts.c: 52:         INTCON3bits.INT2IF = 0;
  7916   001A76  92F0               	bcf	240,1,c	;volatile
  7917   001A78                     
  7918                           ;Interrupts.c: 53:         ScanCounter();
  7919   001A78  ECD7  F00E         	call	i2_ScanCounter	;wreg free
  7920   001A7C                     i2l684:
  7921   001A7C  C05B  FFDA         	movff	??_high_isr+3,fsr2h
  7922   001A80  C05A  FFD9         	movff	??_high_isr+2,fsr2l
  7923   001A84  926D               	bcf	int$flags,1,c	;clear compiler interrupt flag (level 2)
  7924   001A86  0011               	retfie		f
  7925   001A88                     __end_of_high_isr:
  7926                           	callstack 0
  7927                           
  7928 ;; *************** function i2_WriteTimer0 *****************
  7929 ;; Defined at:
  7930 ;;		line 37 in file "Timers.c"
  7931 ;; Parameters:    Size  Location     Type
  7932 ;;  timer0          2    0[COMRAM] unsigned int 
  7933 ;; Auto vars:     Size  Location     Type
  7934 ;;  timer           2    2[COMRAM] struct Timers
  7935 ;; Return value:  Size  Location     Type
  7936 ;;                  1    wreg      void 
  7937 ;; Registers used:
  7938 ;;		None
  7939 ;; Tracked objects:
  7940 ;;		On entry : 0/0
  7941 ;;		On exit  : 0/0
  7942 ;;		Unchanged: 0/0
  7943 ;; Data sizes:     COMRAM   BANK0   BANK1   BANK2   BANK3   BANK4   BANK5
  7944 ;;      Params:         2       0       0       0       0       0       0
  7945 ;;      Locals:         2       0       0       0       0       0       0
  7946 ;;      Temps:          0       0       0       0       0       0       0
  7947 ;;      Totals:         4       0       0       0       0       0       0
  7948 ;;Total ram usage:        4 bytes
  7949 ;; Hardware stack levels used: 1
  7950 ;; This function calls:
  7951 ;;		Nothing
  7952 ;; This function is called by:
  7953 ;;		_high_isr
  7954 ;; This function uses a non-reentrant model
  7955 ;;
  7956                           
  7957                           	psect	text48
  7958   002A34                     __ptext48:
  7959                           	callstack 0
  7960   002A34                     i2_WriteTimer0:
  7961                           	callstack 21
  7962   002A34                     
  7963                           ;Timers.c: 37: void WriteTimer0(unsigned int timer0);Timers.c: 38: {;Timers.c: 39:     u
      +                          nion Timers timer;;Timers.c: 41:     timer.lt = timer0;
  7964   002A34  C04D  F04F         	movff	i2WriteTimer0@timer0,i2WriteTimer0@timer
  7965   002A38  C04E  F050         	movff	i2WriteTimer0@timer0+1,i2WriteTimer0@timer+1
  7966                           
  7967                           ;Timers.c: 43:     TMR0H = timer.bt[1];
  7968   002A3C  C050  FFD7         	movff	i2WriteTimer0@timer+1,4055	;volatile
  7969                           
  7970                           ;Timers.c: 44:     TMR0L = timer.bt[0];
  7971   002A40  C04F  FFD6         	movff	i2WriteTimer0@timer,4054	;volatile
  7972   002A44  0012               	return		;funcret
  7973   002A46                     __end_ofi2_WriteTimer0:
  7974                           	callstack 0
  7975                           
  7976 ;; *************** function i2_ScanCounter *****************
  7977 ;; Defined at:
  7978 ;;		line 79 in file "Counter.c"
  7979 ;; Parameters:    Size  Location     Type
  7980 ;;		None
  7981 ;; Auto vars:     Size  Location     Type
  7982 ;;		None
  7983 ;; Return value:  Size  Location     Type
  7984 ;;                  1    wreg      void 
  7985 ;; Registers used:
  7986 ;;		wreg, status,2, status,0
  7987 ;; Tracked objects:
  7988 ;;		On entry : 0/0
  7989 ;;		On exit  : 0/0
  7990 ;;		Unchanged: 0/0
  7991 ;; Data sizes:     COMRAM   BANK0   BANK1   BANK2   BANK3   BANK4   BANK5
  7992 ;;      Params:         0       0       0       0       0       0       0
  7993 ;;      Locals:         0       0       0       0       0       0       0
  7994 ;;      Temps:          0       0       0       0       0       0       0
  7995 ;;      Totals:         0       0       0       0       0       0       0
  7996 ;;Total ram usage:        0 bytes
  7997 ;; Hardware stack levels used: 1
  7998 ;; This function calls:
  7999 ;;		Nothing
  8000 ;; This function is called by:
  8001 ;;		_high_isr
  8002 ;; This function uses a non-reentrant model
  8003 ;;
  8004                           
  8005                           	psect	text49
  8006   001DAE                     __ptext49:
  8007                           	callstack 0
  8008   001DAE                     i2_ScanCounter:
  8009                           	callstack 21
  8010   001DAE                     
  8011                           ;Counter.c: 80:     if(!counter_enable_flg) return;
  8012   001DAE  5038               	movf	_counter_enable_flg^0,w,c
  8013   001DB0  A4D8               	btfss	status,2,c
  8014   001DB2  EFDD  F00E         	goto	i2u552_41
  8015   001DB6  EFDF  F00E         	goto	i2u552_40
  8016   001DBA                     i2u552_41:
  8017   001DBA  EFE1  F00E         	goto	i2l7699
  8018   001DBE                     i2u552_40:
  8019   001DBE  EF43  F00F         	goto	i2l804
  8020   001DC2                     i2l7699:
  8021                           
  8022                           ;Counter.c: 81:     if( counter_direction_flg == 1 ){
  8023   001DC2  0437               	decf	_counter_direction_flg^0,w,c
  8024   001DC4  A4D8               	btfss	status,2,c
  8025   001DC6  EFE7  F00E         	goto	i2u553_41
  8026   001DCA  EFE9  F00E         	goto	i2u553_40
  8027   001DCE                     i2u553_41:
  8028   001DCE  EF04  F00F         	goto	i2l7715
  8029   001DD2                     i2u553_40:
  8030   001DD2                     
  8031                           ;Counter.c: 82:         counter_up_second ++;
  8032   001DD2  2A39               	incf	_counter_up_second^0,f,c
  8033   001DD4                     
  8034                           ;Counter.c: 83:         if( counter_up_second == 60 ){
  8035   001DD4  0E3C               	movlw	60
  8036   001DD6  1839               	xorwf	_counter_up_second^0,w,c
  8037   001DD8  A4D8               	btfss	status,2,c
  8038   001DDA  EFF1  F00E         	goto	i2u554_41
  8039   001DDE  EFF3  F00E         	goto	i2u554_40
  8040   001DE2                     i2u554_41:
  8041   001DE2  EF43  F00F         	goto	i2l804
  8042   001DE6                     i2u554_40:
  8043   001DE6                     
  8044                           ;Counter.c: 84:             counter_up_second = 0;
  8045   001DE6  0E00               	movlw	0
  8046   001DE8  6E39               	movwf	_counter_up_second^0,c
  8047   001DEA                     
  8048                           ;Counter.c: 85:             counter_up_minute ++;
  8049   001DEA  2A3A               	incf	_counter_up_minute^0,f,c
  8050   001DEC                     
  8051                           ;Counter.c: 86:             if(counter_up_minute == 60){
  8052   001DEC  0E3C               	movlw	60
  8053   001DEE  183A               	xorwf	_counter_up_minute^0,w,c
  8054   001DF0  A4D8               	btfss	status,2,c
  8055   001DF2  EFFD  F00E         	goto	i2u555_41
  8056   001DF6  EFFF  F00E         	goto	i2u555_40
  8057   001DFA                     i2u555_41:
  8058   001DFA  EF43  F00F         	goto	i2l804
  8059   001DFE                     i2u555_40:
  8060   001DFE                     
  8061                           ;Counter.c: 87:                 counter_up_minute = 0;
  8062   001DFE  0E00               	movlw	0
  8063   001E00  6E3A               	movwf	_counter_up_minute^0,c
  8064   001E02                     
  8065                           ;Counter.c: 88:                 counter_up_hour ++;
  8066   001E02  2A3B               	incf	_counter_up_hour^0,f,c
  8067   001E04  EF43  F00F         	goto	i2l804
  8068   001E08                     i2l7715:
  8069   001E08  5037               	movf	_counter_direction_flg^0,w,c
  8070   001E0A  A4D8               	btfss	status,2,c
  8071   001E0C  EF0A  F00F         	goto	i2u556_41
  8072   001E10  EF0C  F00F         	goto	i2u556_40
  8073   001E14                     i2u556_41:
  8074   001E14  EF43  F00F         	goto	i2l804
  8075   001E18                     i2u556_40:
  8076   001E18                     
  8077                           ;Counter.c: 93:         if( counter_down_hour == 0 && counter_down_minute == 0 && counte
      +                          r_down_second == 0 ) {
  8078   001E18  5041               	movf	_counter_down_hour^0,w,c
  8079   001E1A  A4D8               	btfss	status,2,c
  8080   001E1C  EF12  F00F         	goto	i2u557_41
  8081   001E20  EF14  F00F         	goto	i2u557_40
  8082   001E24                     i2u557_41:
  8083   001E24  EF2C  F00F         	goto	i2l7727
  8084   001E28                     i2u557_40:
  8085   001E28  5040               	movf	_counter_down_minute^0,w,c
  8086   001E2A  A4D8               	btfss	status,2,c
  8087   001E2C  EF1A  F00F         	goto	i2u558_41
  8088   001E30  EF1C  F00F         	goto	i2u558_40
  8089   001E34                     i2u558_41:
  8090   001E34  EF2C  F00F         	goto	i2l7727
  8091   001E38                     i2u558_40:
  8092   001E38  503F               	movf	_counter_down_second^0,w,c
  8093   001E3A  A4D8               	btfss	status,2,c
  8094   001E3C  EF22  F00F         	goto	i2u559_41
  8095   001E40  EF24  F00F         	goto	i2u559_40
  8096   001E44                     i2u559_41:
  8097   001E44  EF2C  F00F         	goto	i2l7727
  8098   001E48                     i2u559_40:
  8099   001E48                     
  8100                           ;Counter.c: 94:             counter_enable_flg = 0;
  8101   001E48  0E00               	movlw	0
  8102   001E4A  6E38               	movwf	_counter_enable_flg^0,c
  8103                           
  8104                           ;Counter.c: 95:             counter_down_comp_flg = 1; counter_down_comp_cnt = 0;
  8105   001E4C  0E01               	movlw	1
  8106   001E4E  6E34               	movwf	_counter_down_comp_flg^0,c
  8107   001E50  0E00               	movlw	0
  8108   001E52  6E33               	movwf	_counter_down_comp_cnt^0,c
  8109   001E54  EF43  F00F         	goto	i2l804
  8110   001E58                     i2l7727:
  8111                           
  8112                           ;Counter.c: 98:         counter_down_comp_flg = 0;
  8113   001E58  0E00               	movlw	0
  8114   001E5A  6E34               	movwf	_counter_down_comp_flg^0,c
  8115   001E5C                     
  8116                           ;Counter.c: 99:         counter_down_second --;
  8117   001E5C  063F               	decf	_counter_down_second^0,f,c
  8118   001E5E                     
  8119                           ;Counter.c: 100:         if( counter_down_second < 0 ) {
  8120   001E5E  BE3F               	btfsc	_counter_down_second^0,7,c
  8121   001E60  EF36  F00F         	goto	i2u560_40
  8122   001E64  EF34  F00F         	goto	i2u560_41
  8123   001E68                     i2u560_41:
  8124   001E68  EF43  F00F         	goto	i2l804
  8125   001E6C                     i2u560_40:
  8126   001E6C                     
  8127                           ;Counter.c: 101:             counter_down_second = 59;
  8128   001E6C  0E3B               	movlw	59
  8129   001E6E  6E3F               	movwf	_counter_down_second^0,c
  8130   001E70                     
  8131                           ;Counter.c: 102:             counter_down_minute --;
  8132   001E70  0640               	decf	_counter_down_minute^0,f,c
  8133   001E72                     
  8134                           ;Counter.c: 103:             if( counter_down_minute < 0 ){
  8135   001E72  BE40               	btfsc	_counter_down_minute^0,7,c
  8136   001E74  EF40  F00F         	goto	i2u561_40
  8137   001E78  EF3E  F00F         	goto	i2u561_41
  8138   001E7C                     i2u561_41:
  8139   001E7C  EF43  F00F         	goto	i2l804
  8140   001E80                     i2u561_40:
  8141   001E80                     
  8142                           ;Counter.c: 104:                 counter_down_minute = 59;
  8143   001E80  0E3B               	movlw	59
  8144   001E82  6E40               	movwf	_counter_down_minute^0,c
  8145   001E84                     
  8146                           ;Counter.c: 105:                 counter_down_hour --;
  8147   001E84  0641               	decf	_counter_down_hour^0,f,c
  8148   001E86                     i2l804:
  8149   001E86  0012               	return		;funcret
  8150   001E88                     __end_ofi2_ScanCounter:
  8151                           	callstack 0
  8152                           
  8153 ;; *************** function ___lwdiv *****************
  8154 ;; Defined at:
  8155 ;;		line 7 in file "C:\Program Files\Microchip\xc8\v2.41\pic\sources\c99\common\lwdiv.c"
  8156 ;; Parameters:    Size  Location     Type
  8157 ;;  dividend        2    0[COMRAM] unsigned int 
  8158 ;;  divisor         2    2[COMRAM] unsigned int 
  8159 ;; Auto vars:     Size  Location     Type
  8160 ;;  quotient        2    4[COMRAM] unsigned int 
  8161 ;;  counter         1    6[COMRAM] unsigned char 
  8162 ;; Return value:  Size  Location     Type
  8163 ;;                  2    0[COMRAM] unsigned int 
  8164 ;; Registers used:
  8165 ;;		wreg, status,2, status,0
  8166 ;; Tracked objects:
  8167 ;;		On entry : 0/0
  8168 ;;		On exit  : 0/0
  8169 ;;		Unchanged: 0/0
  8170 ;; Data sizes:     COMRAM   BANK0   BANK1   BANK2   BANK3   BANK4   BANK5
  8171 ;;      Params:         4       0       0       0       0       0       0
  8172 ;;      Locals:         3       0       0       0       0       0       0
  8173 ;;      Temps:          0       0       0       0       0       0       0
  8174 ;;      Totals:         7       0       0       0       0       0       0
  8175 ;;Total ram usage:        7 bytes
  8176 ;; Hardware stack levels used: 1
  8177 ;; This function calls:
  8178 ;;		Nothing
  8179 ;; This function is called by:
  8180 ;;		_high_isr
  8181 ;; This function uses a non-reentrant model
  8182 ;;
  8183                           
  8184                           	psect	text50
  8185   0025CE                     __ptext50:
  8186                           	callstack 0
  8187   0025CE                     ___lwdiv:
  8188                           	callstack 21
  8189   0025CE  0E00               	movlw	0
  8190   0025D0  6E52               	movwf	(___lwdiv@quotient+1)^0,c
  8191   0025D2  0E00               	movlw	0
  8192   0025D4  6E51               	movwf	___lwdiv@quotient^0,c
  8193   0025D6  504F               	movf	___lwdiv@divisor^0,w,c
  8194   0025D8  1050               	iorwf	(___lwdiv@divisor+1)^0,w,c
  8195   0025DA  B4D8               	btfsc	status,2,c
  8196   0025DC  EFF2  F012         	goto	i2u549_41
  8197   0025E0  EFF4  F012         	goto	i2u549_40
  8198   0025E4                     i2u549_41:
  8199   0025E4  EF1C  F013         	goto	i2l2433
  8200   0025E8                     i2u549_40:
  8201   0025E8  0E01               	movlw	1
  8202   0025EA  6E53               	movwf	___lwdiv@counter^0,c
  8203   0025EC  EFFC  F012         	goto	i2l7679
  8204   0025F0                     i2l7677:
  8205   0025F0  90D8               	bcf	status,0,c
  8206   0025F2  364F               	rlcf	___lwdiv@divisor^0,f,c
  8207   0025F4  3650               	rlcf	(___lwdiv@divisor+1)^0,f,c
  8208   0025F6  2A53               	incf	___lwdiv@counter^0,f,c
  8209   0025F8                     i2l7679:
  8210   0025F8  AE50               	btfss	(___lwdiv@divisor+1)^0,7,c
  8211   0025FA  EF01  F013         	goto	i2u550_41
  8212   0025FE  EF03  F013         	goto	i2u550_40
  8213   002602                     i2u550_41:
  8214   002602  EFF8  F012         	goto	i2l7677
  8215   002606                     i2u550_40:
  8216   002606                     i2l7681:
  8217   002606  90D8               	bcf	status,0,c
  8218   002608  3651               	rlcf	___lwdiv@quotient^0,f,c
  8219   00260A  3652               	rlcf	(___lwdiv@quotient+1)^0,f,c
  8220   00260C  504F               	movf	___lwdiv@divisor^0,w,c
  8221   00260E  5C4D               	subwf	___lwdiv@dividend^0,w,c
  8222   002610  5050               	movf	(___lwdiv@divisor+1)^0,w,c
  8223   002612  584E               	subwfb	(___lwdiv@dividend+1)^0,w,c
  8224   002614  A0D8               	btfss	status,0,c
  8225   002616  EF0F  F013         	goto	i2u551_41
  8226   00261A  EF11  F013         	goto	i2u551_40
  8227   00261E                     i2u551_41:
  8228   00261E  EF16  F013         	goto	i2l7689
  8229   002622                     i2u551_40:
  8230   002622  504F               	movf	___lwdiv@divisor^0,w,c
  8231   002624  5E4D               	subwf	___lwdiv@dividend^0,f,c
  8232   002626  5050               	movf	(___lwdiv@divisor+1)^0,w,c
  8233   002628  5A4E               	subwfb	(___lwdiv@dividend+1)^0,f,c
  8234   00262A  8051               	bsf	___lwdiv@quotient^0,0,c
  8235   00262C                     i2l7689:
  8236   00262C  90D8               	bcf	status,0,c
  8237   00262E  3250               	rrcf	(___lwdiv@divisor+1)^0,f,c
  8238   002630  324F               	rrcf	___lwdiv@divisor^0,f,c
  8239   002632  2E53               	decfsz	___lwdiv@counter^0,f,c
  8240   002634  EF03  F013         	goto	i2l7681
  8241   002638                     i2l2433:
  8242   002638  C051  F04D         	movff	___lwdiv@quotient,?___lwdiv
  8243   00263C  C052  F04E         	movff	___lwdiv@quotient+1,?___lwdiv+1
  8244   002640  0012               	return		;funcret
  8245   002642                     __end_of___lwdiv:
  8246                           	callstack 0
  8247                           
  8248 ;; *************** function _ScanDisplay *****************
  8249 ;; Defined at:
  8250 ;;		line 36 in file "Display.c"
  8251 ;; Parameters:    Size  Location     Type
  8252 ;;		None
  8253 ;; Auto vars:     Size  Location     Type
  8254 ;;  temp            1   10[COMRAM] unsigned char 
  8255 ;; Return value:  Size  Location     Type
  8256 ;;                  1    wreg      void 
  8257 ;; Registers used:
  8258 ;;		wreg, fsr2l, fsr2h, status,2, status,0, cstack
  8259 ;; Tracked objects:
  8260 ;;		On entry : 0/0
  8261 ;;		On exit  : 0/0
  8262 ;;		Unchanged: 0/0
  8263 ;; Data sizes:     COMRAM   BANK0   BANK1   BANK2   BANK3   BANK4   BANK5
  8264 ;;      Params:         0       0       0       0       0       0       0
  8265 ;;      Locals:         1       0       0       0       0       0       0
  8266 ;;      Temps:          4       0       0       0       0       0       0
  8267 ;;      Totals:         5       0       0       0       0       0       0
  8268 ;;Total ram usage:        5 bytes
  8269 ;; Hardware stack levels used: 1
  8270 ;; Hardware stack levels required when called: 1
  8271 ;; This function calls:
  8272 ;;		_TLC5917Write
  8273 ;; This function is called by:
  8274 ;;		_high_isr
  8275 ;; This function uses a non-reentrant model
  8276 ;;
  8277                           
  8278                           	psect	text51
  8279   00164E                     __ptext51:
  8280                           	callstack 0
  8281   00164E                     _ScanDisplay:
  8282                           	callstack 20
  8283   00164E  808A               	bsf	138,0,c	;volatile
  8284   001650  8E8C               	bsf	140,7,c	;volatile
  8285                           
  8286                           ;Display.c: 38:     unsigned char temp;;Display.c: 39:     LATCbits.LATC2 = LATCbits.LAT
      +                          C1 = LATCbits.LATC0 = LATCbits.LATC5 = LATBbits.LATB1 = LATBbits.LATB5 = LATDbits.LATD7 
      +                          = LATBbits.LATB0 = 1;
  8287   001652  8A8A               	bsf	138,5,c	;volatile
  8288   001654  828A               	bsf	138,1,c	;volatile
  8289   001656  8A8B               	bsf	139,5,c	;volatile
  8290   001658  808B               	bsf	139,0,c	;volatile
  8291   00165A  828B               	bsf	139,1,c	;volatile
  8292   00165C  848B               	bsf	139,2,c	;volatile
  8293   00165E                     
  8294                           ;Display.c: 40:     display_cnt ++;
  8295   00165E  2A31               	incf	_display_cnt^0,f,c
  8296   001660                     
  8297                           ;Display.c: 41:     temp = display_datas[ display_cnt - 1 ];
  8298   001660  0E87               	movlw	low (_display_datas+65535)
  8299   001662  2431               	addwf	_display_cnt^0,w,c
  8300   001664  6ED9               	movwf	fsr2l,c
  8301   001666  6ADA               	clrf	fsr2h,c
  8302   001668  0E00               	movlw	high (_display_datas+65535)
  8303   00166A  22DA               	addwfc	fsr2h,f,c
  8304   00166C  50DF               	movf	indf2,w,c
  8305   00166E  6E57               	movwf	ScanDisplay@temp^0,c
  8306   001670                     
  8307                           ;Display.c: 43:     if( blink_pos[ display_cnt - 1 ] && blink_cnt < BLINK_TIME / 2 ) tem
      +                          p = 0x00;
  8308   001670  0E7F               	movlw	low (_blink_pos+65535)
  8309   001672  2431               	addwf	_display_cnt^0,w,c
  8310   001674  6ED9               	movwf	fsr2l,c
  8311   001676  6ADA               	clrf	fsr2h,c
  8312   001678  0E00               	movlw	high (_blink_pos+65535)
  8313   00167A  22DA               	addwfc	fsr2h,f,c
  8314   00167C  50DF               	movf	indf2,w,c
  8315   00167E  B4D8               	btfsc	status,2,c
  8316   001680  EF44  F00B         	goto	i2u525_41
  8317   001684  EF46  F00B         	goto	i2u525_40
  8318   001688                     i2u525_41:
  8319   001688  EF5B  F00B         	goto	i2l7339
  8320   00168C                     i2u525_40:
  8321   00168C  90D8               	bcf	status,0,c
  8322   00168E  3017               	rrcf	(_BLINK_TIME+1)^0,w,c
  8323   001690  6E54               	movwf	(??_ScanDisplay+1)^0,c
  8324   001692  3016               	rrcf	_BLINK_TIME^0,w,c
  8325   001694  6E53               	movwf	??_ScanDisplay^0,c
  8326   001696  5030               	movf	_blink_cnt^0,w,c
  8327   001698  6E55               	movwf	(??_ScanDisplay+2)^0,c
  8328   00169A  6A56               	clrf	(??_ScanDisplay+3)^0,c
  8329   00169C  5053               	movf	??_ScanDisplay^0,w,c
  8330   00169E  5C55               	subwf	(??_ScanDisplay+2)^0,w,c
  8331   0016A0  5054               	movf	(??_ScanDisplay+1)^0,w,c
  8332   0016A2  5856               	subwfb	(??_ScanDisplay+3)^0,w,c
  8333   0016A4  B0D8               	btfsc	status,0,c
  8334   0016A6  EF57  F00B         	goto	i2u526_41
  8335   0016AA  EF59  F00B         	goto	i2u526_40
  8336   0016AE                     i2u526_41:
  8337   0016AE  EF5B  F00B         	goto	i2l7339
  8338   0016B2                     i2u526_40:
  8339   0016B2  0E00               	movlw	0
  8340   0016B4  6E57               	movwf	ScanDisplay@temp^0,c
  8341   0016B6                     i2l7339:
  8342                           
  8343                           ;Display.c: 44:     TLC5917Write(temp);
  8344   0016B6  C057  F04D         	movff	ScanDisplay@temp,TLC5917Write@data
  8345   0016BA  6A4E               	clrf	(TLC5917Write@data+1)^0,c
  8346   0016BC  EC64  F012         	call	_TLC5917Write	;wreg free
  8347                           
  8348                           ;Display.c: 45:     switch( display_cnt ){
  8349   0016C0  EF7D  F00B         	goto	i2l7347
  8350   0016C4                     i2l907:
  8351   0016C4  948B               	bcf	139,2,c	;volatile
  8352   0016C6  EFAA  F00B         	goto	i2l7349
  8353   0016CA                     i2l909:
  8354   0016CA  928B               	bcf	139,1,c	;volatile
  8355   0016CC  EFAA  F00B         	goto	i2l7349
  8356   0016D0                     i2l910:
  8357   0016D0  908B               	bcf	139,0,c	;volatile
  8358   0016D2  EFAA  F00B         	goto	i2l7349
  8359   0016D6                     i2l911:
  8360   0016D6  9A8B               	bcf	139,5,c	;volatile
  8361   0016D8  EFAA  F00B         	goto	i2l7349
  8362   0016DC                     i2l912:
  8363   0016DC  928A               	bcf	138,1,c	;volatile
  8364   0016DE  EFAA  F00B         	goto	i2l7349
  8365   0016E2                     i2l913:
  8366   0016E2  9A8A               	bcf	138,5,c	;volatile
  8367   0016E4  EFAA  F00B         	goto	i2l7349
  8368   0016E8                     i2l914:
  8369   0016E8  9E8C               	bcf	140,7,c	;volatile
  8370   0016EA  EFAA  F00B         	goto	i2l7349
  8371   0016EE                     i2l915:
  8372   0016EE  908A               	bcf	138,0,c	;volatile
  8373   0016F0  0E00               	movlw	0
  8374   0016F2  6E31               	movwf	_display_cnt^0,c
  8375   0016F4  2A30               	incf	_blink_cnt^0,f,c
  8376   0016F6  EFAA  F00B         	goto	i2l7349
  8377   0016FA                     i2l7347:
  8378   0016FA  5031               	movf	_display_cnt^0,w,c
  8379   0016FC  6E53               	movwf	??_ScanDisplay^0,c
  8380   0016FE  6A54               	clrf	(??_ScanDisplay+1)^0,c
  8381                           
  8382                           ; Switch on 2 bytes has been partitioned into a top level switch of size 1, and 1 sub-sw
      +                          itches
  8383                           ; Switch size 1, requested type "simple"
  8384                           ; Number of cases is 1, Range of values is 0 to 0
  8385                           ; switch strategies available:
  8386                           ; Name         Instructions Cycles
  8387                           ; simple_byte            4     3 (average)
  8388                           ;	Chosen strategy is simple_byte
  8389   001700  5054               	movf	(??_ScanDisplay+1)^0,w,c
  8390   001702  0A00               	xorlw	0	; case 0
  8391   001704  B4D8               	btfsc	status,2,c
  8392   001706  EF87  F00B         	goto	i2l10653
  8393   00170A  EFAA  F00B         	goto	i2l7349
  8394   00170E                     i2l10653:
  8395                           
  8396                           ; Switch size 1, requested type "simple"
  8397                           ; Number of cases is 8, Range of values is 1 to 8
  8398                           ; switch strategies available:
  8399                           ; Name         Instructions Cycles
  8400                           ; simple_byte           25    13 (average)
  8401                           ;	Chosen strategy is simple_byte
  8402   00170E  5053               	movf	??_ScanDisplay^0,w,c
  8403   001710  0A01               	xorlw	1	; case 1
  8404   001712  B4D8               	btfsc	status,2,c
  8405   001714  EF62  F00B         	goto	i2l907
  8406   001718  0A03               	xorlw	3	; case 2
  8407   00171A  B4D8               	btfsc	status,2,c
  8408   00171C  EF65  F00B         	goto	i2l909
  8409   001720  0A01               	xorlw	1	; case 3
  8410   001722  B4D8               	btfsc	status,2,c
  8411   001724  EF68  F00B         	goto	i2l910
  8412   001728  0A07               	xorlw	7	; case 4
  8413   00172A  B4D8               	btfsc	status,2,c
  8414   00172C  EF6B  F00B         	goto	i2l911
  8415   001730  0A01               	xorlw	1	; case 5
  8416   001732  B4D8               	btfsc	status,2,c
  8417   001734  EF6E  F00B         	goto	i2l912
  8418   001738  0A03               	xorlw	3	; case 6
  8419   00173A  B4D8               	btfsc	status,2,c
  8420   00173C  EF71  F00B         	goto	i2l913
  8421   001740  0A01               	xorlw	1	; case 7
  8422   001742  B4D8               	btfsc	status,2,c
  8423   001744  EF74  F00B         	goto	i2l914
  8424   001748  0A0F               	xorlw	15	; case 8
  8425   00174A  B4D8               	btfsc	status,2,c
  8426   00174C  EF77  F00B         	goto	i2l915
  8427   001750  EFAA  F00B         	goto	i2l7349
  8428   001754                     i2l7349:
  8429                           
  8430                           ;Display.c: 56:     if( blink_cnt == BLINK_TIME ) {
  8431   001754  5030               	movf	_blink_cnt^0,w,c
  8432   001756  6E53               	movwf	??_ScanDisplay^0,c
  8433   001758  6A54               	clrf	(??_ScanDisplay+1)^0,c
  8434   00175A  5016               	movf	_BLINK_TIME^0,w,c
  8435   00175C  1853               	xorwf	??_ScanDisplay^0,w,c
  8436   00175E  E107               	bnz	i2u527_41
  8437   001760  5017               	movf	(_BLINK_TIME+1)^0,w,c
  8438   001762  1854               	xorwf	(??_ScanDisplay+1)^0,w,c
  8439   001764  A4D8               	btfss	status,2,c
  8440   001766  EFB7  F00B         	goto	i2u527_41
  8441   00176A  EFB9  F00B         	goto	i2u527_40
  8442   00176E                     i2u527_41:
  8443   00176E  EFDC  F00B         	goto	i2l919
  8444   001772                     i2u527_40:
  8445   001772                     
  8446                           ;Display.c: 57:         blink_cnt = 0;
  8447   001772  0E00               	movlw	0
  8448   001774  6E30               	movwf	_blink_cnt^0,c
  8449                           
  8450                           ;Display.c: 58:         if( counter_down_comp_flg ) counter_down_comp_cnt ++;
  8451   001776  5034               	movf	_counter_down_comp_flg^0,w,c
  8452   001778  B4D8               	btfsc	status,2,c
  8453   00177A  EFC1  F00B         	goto	i2u528_41
  8454   00177E  EFC3  F00B         	goto	i2u528_40
  8455   001782                     i2u528_41:
  8456   001782  EFC4  F00B         	goto	i2l7355
  8457   001786                     i2u528_40:
  8458   001786  2A33               	incf	_counter_down_comp_cnt^0,f,c
  8459   001788                     i2l7355:
  8460                           
  8461                           ;Display.c: 59:         if( counter_down_comp_cnt > 15 && counter_down_comp_flg ) {
  8462   001788  0E0F               	movlw	15
  8463   00178A  6433               	cpfsgt	_counter_down_comp_cnt^0,c
  8464   00178C  EFCA  F00B         	goto	i2u529_41
  8465   001790  EFCC  F00B         	goto	i2u529_40
  8466   001794                     i2u529_41:
  8467   001794  EFDC  F00B         	goto	i2l919
  8468   001798                     i2u529_40:
  8469   001798  5034               	movf	_counter_down_comp_flg^0,w,c
  8470   00179A  B4D8               	btfsc	status,2,c
  8471   00179C  EFD2  F00B         	goto	i2u530_41
  8472   0017A0  EFD4  F00B         	goto	i2u530_40
  8473   0017A4                     i2u530_41:
  8474   0017A4  EFDC  F00B         	goto	i2l919
  8475   0017A8                     i2u530_40:
  8476   0017A8                     
  8477                           ;Display.c: 60:             counter_down_comp_flg = 0; blink_enable_flg = 0; counter_dow
      +                          n_comp_cnt = 12;
  8478   0017A8  0E00               	movlw	0
  8479   0017AA  6E34               	movwf	_counter_down_comp_flg^0,c
  8480   0017AC  0E00               	movlw	0
  8481   0017AE  6E32               	movwf	_blink_enable_flg^0,c
  8482   0017B0  0E0C               	movlw	12
  8483   0017B2  6E33               	movwf	_counter_down_comp_cnt^0,c
  8484                           
  8485                           ;Display.c: 61:             SYSTEM_STATE_FLG = 203;
  8486   0017B4  0ECB               	movlw	203
  8487   0017B6  6E48               	movwf	_SYSTEM_STATE_FLG^0,c
  8488   0017B8                     i2l919:
  8489   0017B8  0012               	return		;funcret
  8490   0017BA                     __end_of_ScanDisplay:
  8491                           	callstack 0
  8492                           
  8493 ;; *************** function _TLC5917Write *****************
  8494 ;; Defined at:
  8495 ;;		line 24 in file "TLC5917.c"
  8496 ;; Parameters:    Size  Location     Type
  8497 ;;  data            2    0[COMRAM] unsigned int 
  8498 ;; Auto vars:     Size  Location     Type
  8499 ;;  i               1    5[COMRAM] unsigned char 
  8500 ;;  temp            2    3[COMRAM] unsigned int 
  8501 ;; Return value:  Size  Location     Type
  8502 ;;                  1    wreg      void 
  8503 ;; Registers used:
  8504 ;;		wreg, status,2, status,0
  8505 ;; Tracked objects:
  8506 ;;		On entry : 0/0
  8507 ;;		On exit  : 0/0
  8508 ;;		Unchanged: 0/0
  8509 ;; Data sizes:     COMRAM   BANK0   BANK1   BANK2   BANK3   BANK4   BANK5
  8510 ;;      Params:         2       0       0       0       0       0       0
  8511 ;;      Locals:         3       0       0       0       0       0       0
  8512 ;;      Temps:          1       0       0       0       0       0       0
  8513 ;;      Totals:         6       0       0       0       0       0       0
  8514 ;;Total ram usage:        6 bytes
  8515 ;; Hardware stack levels used: 1
  8516 ;; This function calls:
  8517 ;;		Nothing
  8518 ;; This function is called by:
  8519 ;;		_ScanDisplay
  8520 ;; This function uses a non-reentrant model
  8521 ;;
  8522                           
  8523                           	psect	text52
  8524   0024C8                     __ptext52:
  8525                           	callstack 0
  8526   0024C8                     _TLC5917Write:
  8527                           	callstack 20
  8528   0024C8                     
  8529                           ;TLC5917.c: 26:     unsigned int temp = data;
  8530   0024C8  C04D  F050         	movff	TLC5917Write@data,TLC5917Write@temp
  8531   0024CC  C04E  F051         	movff	TLC5917Write@data+1,TLC5917Write@temp+1
  8532                           
  8533                           ;TLC5917.c: 27:     PORTAbits.RA0 = 0; PORTAbits.RA5 = 0; PORTAbits.RA3 = 1;
  8534   0024D0  9080               	bcf	128,0,c	;volatile
  8535   0024D2  9A80               	bcf	128,5,c	;volatile
  8536   0024D4  8680               	bsf	128,3,c	;volatile
  8537   0024D6                     
  8538                           ;TLC5917.c: 28:     for( unsigned char i = 0; i < 8; i++ ){
  8539   0024D6  0E00               	movlw	0
  8540   0024D8  6E52               	movwf	TLC5917Write@i^0,c
  8541   0024DA                     i2l6569:
  8542                           
  8543                           ;TLC5917.c: 29:         PORTAbits.RA0 = (temp & 0x80) ? 1 : 0; _delay((unsigned long)((1
      +                          )*(32000000UL/4000000.0)));
  8544   0024DA  BE50               	btfsc	TLC5917Write@temp^0,7,c
  8545   0024DC  EF72  F012         	goto	i2u435_41
  8546   0024E0  EF76  F012         	goto	i2u435_40
  8547   0024E4                     i2u435_41:
  8548   0024E4  6A4F               	clrf	??_TLC5917Write^0,c
  8549   0024E6  2A4F               	incf	??_TLC5917Write^0,f,c
  8550   0024E8  EF77  F012         	goto	i2u436_48
  8551   0024EC                     i2u435_40:
  8552   0024EC  6A4F               	clrf	??_TLC5917Write^0,c
  8553   0024EE                     i2u436_48:
  8554   0024EE  5080               	movf	128,w,c	;volatile
  8555   0024F0  184F               	xorwf	??_TLC5917Write^0,w,c
  8556   0024F2  0BFE               	andlw	-2
  8557   0024F4  184F               	xorwf	??_TLC5917Write^0,w,c
  8558   0024F6  6E80               	movwf	128,c	;volatile
  8559   0024F8  D000               	nop2		;2 cycle nop
  8560   0024FA  D000               	nop2		;2 cycle nop
  8561   0024FC  D000               	nop2		;2 cycle nop
  8562   0024FE  D000               	nop2		;2 cycle nop
  8563   002500                     
  8564                           ;TLC5917.c: 30:         PORTAbits.RA1 = 1; _delay((unsigned long)((1)*(32000000UL/400000
      +                          0.0))); PORTAbits.RA1 = 0; _delay((unsigned long)((1)*(32000000UL/4000000.0)));
  8565   002500  8280               	bsf	128,1,c	;volatile
  8566   002502  D000               	nop2		;2 cycle nop
  8567   002504  D000               	nop2		;2 cycle nop
  8568   002506  D000               	nop2		;2 cycle nop
  8569   002508  D000               	nop2		;2 cycle nop
  8570   00250A  9280               	bcf	128,1,c	;volatile
  8571   00250C  D000               	nop2		;2 cycle nop
  8572   00250E  D000               	nop2		;2 cycle nop
  8573   002510  D000               	nop2		;2 cycle nop
  8574   002512  D000               	nop2		;2 cycle nop
  8575                           
  8576                           ;TLC5917.c: 31:         temp = temp << 1;
  8577   002514  90D8               	bcf	status,0,c
  8578   002516  3450               	rlcf	TLC5917Write@temp^0,w,c
  8579   002518  6E50               	movwf	TLC5917Write@temp^0,c
  8580   00251A  3451               	rlcf	(TLC5917Write@temp+1)^0,w,c
  8581   00251C  6E51               	movwf	(TLC5917Write@temp+1)^0,c
  8582   00251E                     
  8583                           ;TLC5917.c: 32:     }
  8584   00251E  2A52               	incf	TLC5917Write@i^0,f,c
  8585   002520  0E07               	movlw	7
  8586   002522  6452               	cpfsgt	TLC5917Write@i^0,c
  8587   002524  EF96  F012         	goto	i2u437_41
  8588   002528  EF98  F012         	goto	i2u437_40
  8589   00252C                     i2u437_41:
  8590   00252C  EF6D  F012         	goto	i2l6569
  8591   002530                     i2u437_40:
  8592   002530                     
  8593                           ;TLC5917.c: 33:     PORTAbits.RA5 = 1; _delay((unsigned long)((1)*(32000000UL/4000000.0)
      +                          )); PORTAbits.RA5 = 0; _delay((unsigned long)((1)*(32000000UL/4000000.0)));
  8594   002530  8A80               	bsf	128,5,c	;volatile
  8595   002532  D000               	nop2		;2 cycle nop
  8596   002534  D000               	nop2		;2 cycle nop
  8597   002536  D000               	nop2		;2 cycle nop
  8598   002538  D000               	nop2		;2 cycle nop
  8599   00253A  9A80               	bcf	128,5,c	;volatile
  8600   00253C  D000               	nop2		;2 cycle nop
  8601   00253E  D000               	nop2		;2 cycle nop
  8602   002540  D000               	nop2		;2 cycle nop
  8603   002542  D000               	nop2		;2 cycle nop
  8604                           
  8605                           ;TLC5917.c: 34:     PORTAbits.RA3 = 0; _delay((unsigned long)((2)*(32000000UL/4000000.0)
      +                          ));
  8606   002544  9680               	bcf	128,3,c	;volatile
  8607   002546  0E05               	movlw	5
  8608   002548                     i2u806_47:
  8609   002548  2EE8               	decfsz	wreg,f,c
  8610   00254A  D7FE               	bra	i2u806_47
  8611   00254C  F000               	nop	
  8612   00254E  0012               	return		;funcret
  8613   002550                     __end_of_TLC5917Write:
  8614                           	callstack 0
  8615                           
  8616 ;; *************** function _ScanButtons *****************
  8617 ;; Defined at:
  8618 ;;		line 28 in file "Buttons.c"
  8619 ;; Parameters:    Size  Location     Type
  8620 ;;		None
  8621 ;; Auto vars:     Size  Location     Type
  8622 ;;		None
  8623 ;; Return value:  Size  Location     Type
  8624 ;;                  1    wreg      void 
  8625 ;; Registers used:
  8626 ;;		wreg, status,2, status,0
  8627 ;; Tracked objects:
  8628 ;;		On entry : 0/0
  8629 ;;		On exit  : 0/0
  8630 ;;		Unchanged: 0/0
  8631 ;; Data sizes:     COMRAM   BANK0   BANK1   BANK2   BANK3   BANK4   BANK5
  8632 ;;      Params:         0       0       0       0       0       0       0
  8633 ;;      Locals:         0       0       0       0       0       0       0
  8634 ;;      Temps:          0       0       0       0       0       0       0
  8635 ;;      Totals:         0       0       0       0       0       0       0
  8636 ;;Total ram usage:        0 bytes
  8637 ;; Hardware stack levels used: 1
  8638 ;; This function calls:
  8639 ;;		Nothing
  8640 ;; This function is called by:
  8641 ;;		_high_isr
  8642 ;; This function uses a non-reentrant model
  8643 ;;
  8644                           
  8645                           	psect	text53
  8646   0014C8                     __ptext53:
  8647                           	callstack 0
  8648   0014C8                     _ScanButtons:
  8649                           	callstack 21
  8650   0014C8                     
  8651                           ;Buttons.c: 30:     if( PORTAbits.RA7 == 0 ) { hour_btn_released_cnt = 0; hour_btn_press
      +                          ed_cnt ++; BTN_CLICK_EVENT = 1; }
  8652   0014C8  BE80               	btfsc	128,7,c	;volatile
  8653   0014CA  EF69  F00A         	goto	i2u531_41
  8654   0014CE  EF6B  F00A         	goto	i2u531_40
  8655   0014D2                     i2u531_41:
  8656   0014D2  EF74  F00A         	goto	i2l7373
  8657   0014D6                     i2u531_40:
  8658   0014D6  0E00               	movlw	0
  8659   0014D8  0100               	movlb	0	; () banked
  8660   0014DA  6FC1               	movwf	(_hour_btn_released_cnt+1)& (0+255),b
  8661   0014DC  0E00               	movlw	0
  8662   0014DE  6FC0               	movwf	_hour_btn_released_cnt& (0+255),b
  8663   0014E0                     
  8664                           ; BSR set to: 0
  8665   0014E0  4A14               	infsnz	_hour_btn_pressed_cnt^0,f,c
  8666   0014E2  2A15               	incf	(_hour_btn_pressed_cnt+1)^0,f,c
  8667   0014E4                     
  8668                           ; BSR set to: 0
  8669   0014E4  0E01               	movlw	1
  8670   0014E6  6E2E               	movwf	_BTN_CLICK_EVENT^0,c
  8671   0014E8                     i2l7373:
  8672                           
  8673                           ;Buttons.c: 31:     if( PORTAbits.RA7 == 1 && BTN_CLICK_EVENT == 1 ){ hour_btn_pressed_c
      +                          nt = 0; hour_btn_released_cnt ++; }
  8674   0014E8  AE80               	btfss	128,7,c	;volatile
  8675   0014EA  EF79  F00A         	goto	i2u532_41
  8676   0014EE  EF7B  F00A         	goto	i2u532_40
  8677   0014F2                     i2u532_41:
  8678   0014F2  EF8A  F00A         	goto	i2l7381
  8679   0014F6                     i2u532_40:
  8680   0014F6  042E               	decf	_BTN_CLICK_EVENT^0,w,c
  8681   0014F8  A4D8               	btfss	status,2,c
  8682   0014FA  EF81  F00A         	goto	i2u533_41
  8683   0014FE  EF83  F00A         	goto	i2u533_40
  8684   001502                     i2u533_41:
  8685   001502  EF8A  F00A         	goto	i2l7381
  8686   001506                     i2u533_40:
  8687   001506  0E00               	movlw	0
  8688   001508  6E15               	movwf	(_hour_btn_pressed_cnt+1)^0,c
  8689   00150A  0E00               	movlw	0
  8690   00150C  6E14               	movwf	_hour_btn_pressed_cnt^0,c
  8691   00150E  0100               	movlb	0	; () banked
  8692   001510  4BC0               	infsnz	_hour_btn_released_cnt& (0+255),f,b
  8693   001512  2BC1               	incf	(_hour_btn_released_cnt+1)& (0+255),f,b
  8694   001514                     i2l7381:
  8695                           
  8696                           ;Buttons.c: 33:     if( PORTAbits.RA4 == 0 ) { up_btn_released_cnt = 0; up_btn_pressed_c
      +                          nt ++; BTN_CLICK_EVENT = 2; }
  8697   001514  B880               	btfsc	128,4,c	;volatile
  8698   001516  EF8F  F00A         	goto	i2u534_41
  8699   00151A  EF91  F00A         	goto	i2u534_40
  8700   00151E                     i2u534_41:
  8701   00151E  EF9A  F00A         	goto	i2l7389
  8702   001522                     i2u534_40:
  8703   001522  0E00               	movlw	0
  8704   001524  0100               	movlb	0	; () banked
  8705   001526  6FBF               	movwf	(_up_btn_released_cnt+1)& (0+255),b
  8706   001528  0E00               	movlw	0
  8707   00152A  6FBE               	movwf	_up_btn_released_cnt& (0+255),b
  8708   00152C                     
  8709                           ; BSR set to: 0
  8710   00152C  4A12               	infsnz	_up_btn_pressed_cnt^0,f,c
  8711   00152E  2A13               	incf	(_up_btn_pressed_cnt+1)^0,f,c
  8712   001530                     
  8713                           ; BSR set to: 0
  8714   001530  0E02               	movlw	2
  8715   001532  6E2E               	movwf	_BTN_CLICK_EVENT^0,c
  8716   001534                     i2l7389:
  8717                           
  8718                           ;Buttons.c: 34:     if( PORTAbits.RA4 == 1 && BTN_CLICK_EVENT == 2 ){ up_btn_pressed_cnt
      +                           = 0; up_btn_released_cnt ++; }
  8719   001534  A880               	btfss	128,4,c	;volatile
  8720   001536  EF9F  F00A         	goto	i2u535_41
  8721   00153A  EFA1  F00A         	goto	i2u535_40
  8722   00153E                     i2u535_41:
  8723   00153E  EFB1  F00A         	goto	i2l7397
  8724   001542                     i2u535_40:
  8725   001542  0E02               	movlw	2
  8726   001544  182E               	xorwf	_BTN_CLICK_EVENT^0,w,c
  8727   001546  A4D8               	btfss	status,2,c
  8728   001548  EFA8  F00A         	goto	i2u536_41
  8729   00154C  EFAA  F00A         	goto	i2u536_40
  8730   001550                     i2u536_41:
  8731   001550  EFB1  F00A         	goto	i2l7397
  8732   001554                     i2u536_40:
  8733   001554  0E00               	movlw	0
  8734   001556  6E13               	movwf	(_up_btn_pressed_cnt+1)^0,c
  8735   001558  0E00               	movlw	0
  8736   00155A  6E12               	movwf	_up_btn_pressed_cnt^0,c
  8737   00155C  0100               	movlb	0	; () banked
  8738   00155E  4BBE               	infsnz	_up_btn_released_cnt& (0+255),f,b
  8739   001560  2BBF               	incf	(_up_btn_released_cnt+1)& (0+255),f,b
  8740   001562                     i2l7397:
  8741                           
  8742                           ;Buttons.c: 36:     if( PORTAbits.RA6 == 0 ) { down_btn_released_cnt = 0; down_btn_press
      +                          ed_cnt ++; BTN_CLICK_EVENT = 3; }
  8743   001562  BC80               	btfsc	128,6,c	;volatile
  8744   001564  EFB6  F00A         	goto	i2u537_41
  8745   001568  EFB8  F00A         	goto	i2u537_40
  8746   00156C                     i2u537_41:
  8747   00156C  EFC1  F00A         	goto	i2l7405
  8748   001570                     i2u537_40:
  8749   001570  0E00               	movlw	0
  8750   001572  0100               	movlb	0	; () banked
  8751   001574  6FBD               	movwf	(_down_btn_released_cnt+1)& (0+255),b
  8752   001576  0E00               	movlw	0
  8753   001578  6FBC               	movwf	_down_btn_released_cnt& (0+255),b
  8754   00157A                     
  8755                           ; BSR set to: 0
  8756   00157A  4A10               	infsnz	_down_btn_pressed_cnt^0,f,c
  8757   00157C  2A11               	incf	(_down_btn_pressed_cnt+1)^0,f,c
  8758   00157E                     
  8759                           ; BSR set to: 0
  8760   00157E  0E03               	movlw	3
  8761   001580  6E2E               	movwf	_BTN_CLICK_EVENT^0,c
  8762   001582                     i2l7405:
  8763                           
  8764                           ;Buttons.c: 37:     if( PORTAbits.RA6 == 1 && BTN_CLICK_EVENT == 3 ){ down_btn_pressed_c
      +                          nt = 0; down_btn_released_cnt ++; }
  8765   001582  AC80               	btfss	128,6,c	;volatile
  8766   001584  EFC6  F00A         	goto	i2u538_41
  8767   001588  EFC8  F00A         	goto	i2u538_40
  8768   00158C                     i2u538_41:
  8769   00158C  EFD8  F00A         	goto	i2l7413
  8770   001590                     i2u538_40:
  8771   001590  0E03               	movlw	3
  8772   001592  182E               	xorwf	_BTN_CLICK_EVENT^0,w,c
  8773   001594  A4D8               	btfss	status,2,c
  8774   001596  EFCF  F00A         	goto	i2u539_41
  8775   00159A  EFD1  F00A         	goto	i2u539_40
  8776   00159E                     i2u539_41:
  8777   00159E  EFD8  F00A         	goto	i2l7413
  8778   0015A2                     i2u539_40:
  8779   0015A2  0E00               	movlw	0
  8780   0015A4  6E11               	movwf	(_down_btn_pressed_cnt+1)^0,c
  8781   0015A6  0E00               	movlw	0
  8782   0015A8  6E10               	movwf	_down_btn_pressed_cnt^0,c
  8783   0015AA  0100               	movlb	0	; () banked
  8784   0015AC  4BBC               	infsnz	_down_btn_released_cnt& (0+255),f,b
  8785   0015AE  2BBD               	incf	(_down_btn_released_cnt+1)& (0+255),f,b
  8786   0015B0                     i2l7413:
  8787                           
  8788                           ;Buttons.c: 39:     if( PORTBbits.RB4 == 0 ) { sel_btn_released_cnt = 0; sel_btn_pressed
      +                          _cnt ++; BTN_CLICK_EVENT = 4; }
  8789   0015B0  B881               	btfsc	129,4,c	;volatile
  8790   0015B2  EFDD  F00A         	goto	i2u540_41
  8791   0015B6  EFDF  F00A         	goto	i2u540_40
  8792   0015BA                     i2u540_41:
  8793   0015BA  EFE8  F00A         	goto	i2l7421
  8794   0015BE                     i2u540_40:
  8795   0015BE  0E00               	movlw	0
  8796   0015C0  0100               	movlb	0	; () banked
  8797   0015C2  6FBB               	movwf	(_sel_btn_released_cnt+1)& (0+255),b
  8798   0015C4  0E00               	movlw	0
  8799   0015C6  6FBA               	movwf	_sel_btn_released_cnt& (0+255),b
  8800   0015C8                     
  8801                           ; BSR set to: 0
  8802   0015C8  4A0E               	infsnz	_sel_btn_pressed_cnt^0,f,c
  8803   0015CA  2A0F               	incf	(_sel_btn_pressed_cnt+1)^0,f,c
  8804   0015CC                     
  8805                           ; BSR set to: 0
  8806   0015CC  0E04               	movlw	4
  8807   0015CE  6E2E               	movwf	_BTN_CLICK_EVENT^0,c
  8808   0015D0                     i2l7421:
  8809                           
  8810                           ;Buttons.c: 40:     if( PORTBbits.RB4 == 1 && BTN_CLICK_EVENT == 4 ){ sel_btn_pressed_cn
      +                          t = 0; sel_btn_released_cnt ++; }
  8811   0015D0  A881               	btfss	129,4,c	;volatile
  8812   0015D2  EFED  F00A         	goto	i2u541_41
  8813   0015D6  EFEF  F00A         	goto	i2u541_40
  8814   0015DA                     i2u541_41:
  8815   0015DA  EFFF  F00A         	goto	i2l7429
  8816   0015DE                     i2u541_40:
  8817   0015DE  0E04               	movlw	4
  8818   0015E0  182E               	xorwf	_BTN_CLICK_EVENT^0,w,c
  8819   0015E2  A4D8               	btfss	status,2,c
  8820   0015E4  EFF6  F00A         	goto	i2u542_41
  8821   0015E8  EFF8  F00A         	goto	i2u542_40
  8822   0015EC                     i2u542_41:
  8823   0015EC  EFFF  F00A         	goto	i2l7429
  8824   0015F0                     i2u542_40:
  8825   0015F0  0E00               	movlw	0
  8826   0015F2  6E0F               	movwf	(_sel_btn_pressed_cnt+1)^0,c
  8827   0015F4  0E00               	movlw	0
  8828   0015F6  6E0E               	movwf	_sel_btn_pressed_cnt^0,c
  8829   0015F8  0100               	movlb	0	; () banked
  8830   0015FA  4BBA               	infsnz	_sel_btn_released_cnt& (0+255),f,b
  8831   0015FC  2BBB               	incf	(_sel_btn_released_cnt+1)& (0+255),f,b
  8832   0015FE                     i2l7429:
  8833                           
  8834                           ;Buttons.c: 42:     if( PORTDbits.RD6 == 0 ) { reset_btn_released_cnt = 0; reset_btn_pre
      +                          ssed_cnt ++; BTN_CLICK_EVENT = 5; }
  8835   0015FE  BC83               	btfsc	131,6,c	;volatile
  8836   001600  EF04  F00B         	goto	i2u543_41
  8837   001604  EF06  F00B         	goto	i2u543_40
  8838   001608                     i2u543_41:
  8839   001608  EF0F  F00B         	goto	i2l7437
  8840   00160C                     i2u543_40:
  8841   00160C  0E00               	movlw	0
  8842   00160E  0100               	movlb	0	; () banked
  8843   001610  6FB9               	movwf	(_reset_btn_released_cnt+1)& (0+255),b
  8844   001612  0E00               	movlw	0
  8845   001614  6FB8               	movwf	_reset_btn_released_cnt& (0+255),b
  8846   001616                     
  8847                           ; BSR set to: 0
  8848   001616  4A0C               	infsnz	_reset_btn_pressed_cnt^0,f,c
  8849   001618  2A0D               	incf	(_reset_btn_pressed_cnt+1)^0,f,c
  8850   00161A                     
  8851                           ; BSR set to: 0
  8852   00161A  0E05               	movlw	5
  8853   00161C  6E2E               	movwf	_BTN_CLICK_EVENT^0,c
  8854   00161E                     i2l7437:
  8855                           
  8856                           ;Buttons.c: 43:     if( PORTDbits.RD6 == 1 && BTN_CLICK_EVENT == 5 ){ reset_btn_pressed_
      +                          cnt = 0; reset_btn_released_cnt ++; }
  8857   00161E  AC83               	btfss	131,6,c	;volatile
  8858   001620  EF14  F00B         	goto	i2u544_41
  8859   001624  EF16  F00B         	goto	i2u544_40
  8860   001628                     i2u544_41:
  8861   001628  EF26  F00B         	goto	i2l1132
  8862   00162C                     i2u544_40:
  8863   00162C  0E05               	movlw	5
  8864   00162E  182E               	xorwf	_BTN_CLICK_EVENT^0,w,c
  8865   001630  A4D8               	btfss	status,2,c
  8866   001632  EF1D  F00B         	goto	i2u545_41
  8867   001636  EF1F  F00B         	goto	i2u545_40
  8868   00163A                     i2u545_41:
  8869   00163A  EF26  F00B         	goto	i2l1132
  8870   00163E                     i2u545_40:
  8871   00163E  0E00               	movlw	0
  8872   001640  6E0D               	movwf	(_reset_btn_pressed_cnt+1)^0,c
  8873   001642  0E00               	movlw	0
  8874   001644  6E0C               	movwf	_reset_btn_pressed_cnt^0,c
  8875   001646  0100               	movlb	0	; () banked
  8876   001648  4BB8               	infsnz	_reset_btn_released_cnt& (0+255),f,b
  8877   00164A  2BB9               	incf	(_reset_btn_released_cnt+1)& (0+255),f,b
  8878   00164C                     i2l1132:
  8879   00164C  0012               	return		;funcret
  8880   00164E                     __end_of_ScanButtons:
  8881                           	callstack 0
  8882                           
  8883                           	psect	rparam
  8884   000000                     
  8885                           	psect	temp
  8886   00006D                     btemp:
  8887                           	callstack 0
  8888   00006D                     	ds	1
  8889   000000                     int$flags	set	btemp
  8890   000000                     wtemp8	set	btemp+1
  8891   000000                     ttemp5	set	btemp+1
  8892   000000                     ttemp6	set	btemp+4
  8893   000000                     ttemp7	set	btemp+8
  8894                           
  8895                           	psect	config
  8896                           
  8897                           ; Padding undefined space
  8898   300000                     	org	3145728
  8899   300000  FF                 	db	255
  8900                           
  8901                           ;Config register CONFIG1H @ 0x300001
  8902                           ;	Oscillator Selection bits
  8903                           ;	OSC = INTIO67, Internal oscillator block, port function on RA6 and RA7
  8904                           ;	Fail-Safe Clock Monitor Enable bit
  8905                           ;	FCMEN = OFF, Fail-Safe Clock Monitor disabled
  8906                           ;	Internal/External Oscillator Switchover bit
  8907                           ;	IESO = OFF, Oscillator Switchover mode disabled
  8908   300001                     	org	3145729
  8909   300001  08                 	db	8
  8910                           
  8911                           ;Config register CONFIG2L @ 0x300002
  8912                           ;	Power-up Timer Enable bit
  8913                           ;	PWRT = OFF, PWRT disabled
  8914                           ;	Brown-out Reset Enable bits
  8915                           ;	BOREN = SBORDIS, Brown-out Reset enabled in hardware only (SBOREN is disabled)
  8916                           ;	Brown Out Reset Voltage bits
  8917                           ;	BORV = 3, Minimum setting
  8918   300002                     	org	3145730
  8919   300002  1F                 	db	31
  8920                           
  8921                           ;Config register CONFIG2H @ 0x300003
  8922                           ;	Watchdog Timer Enable bit
  8923                           ;	WDT = OFF, WDT disabled (control is placed on the SWDTEN bit)
  8924                           ;	Watchdog Timer Postscale Select bits
  8925                           ;	WDTPS = 32768, 1:32768
  8926   300003                     	org	3145731
  8927   300003  1E                 	db	30
  8928                           
  8929                           ; Padding undefined space
  8930   300004                     	org	3145732
  8931   300004  FF                 	db	255
  8932                           
  8933                           ;Config register CONFIG3H @ 0x300005
  8934                           ;	CCP2 MUX bit
  8935                           ;	CCP2MX = PORTC, CCP2 input/output is multiplexed with RC1
  8936                           ;	PORTB A/D Enable bit
  8937                           ;	PBADEN = OFF, PORTB<4:0> pins are configured as digital I/O on Reset
  8938                           ;	Low-Power Timer1 Oscillator Enable bit
  8939                           ;	LPT1OSC = OFF, Timer1 configured for higher power operation
  8940                           ;	MCLR Pin Enable bit
  8941                           ;	MCLRE = OFF, RE3 input pin enabled; MCLR disabled
  8942   300005                     	org	3145733
  8943   300005  01                 	db	1
  8944                           
  8945                           ;Config register CONFIG4L @ 0x300006
  8946                           ;	Stack Full/Underflow Reset Enable bit
  8947                           ;	STVREN = OFF, Stack full/underflow will not cause Reset
  8948                           ;	Single-Supply ICSP Enable bit
  8949                           ;	LVP = OFF, Single-Supply ICSP disabled
  8950                           ;	Extended Instruction Set Enable bit
  8951                           ;	XINST = OFF, Instruction set extension and Indexed Addressing mode disabled (Legacy mo
      +                          de)
  8952                           ;	Background Debugger Enable bit
  8953                           ;	DEBUG = 0x1, unprogrammed default
  8954   300006                     	org	3145734
  8955   300006  80                 	db	128
  8956                           
  8957                           ; Padding undefined space
  8958   300007                     	org	3145735
  8959   300007  FF                 	db	255
  8960                           
  8961                           ;Config register CONFIG5L @ 0x300008
  8962                           ;	Code Protection bit
  8963                           ;	CP0 = OFF, Block 0 (000800-001FFFh) not code-protected
  8964                           ;	Code Protection bit
  8965                           ;	CP1 = OFF, Block 1 (002000-003FFFh) not code-protected
  8966                           ;	Code Protection bit
  8967                           ;	CP2 = OFF, Block 2 (004000-005FFFh) not code-protected
  8968                           ;	Code Protection bit
  8969                           ;	CP3 = OFF, Block 3 (006000-007FFFh) not code-protected
  8970   300008                     	org	3145736
  8971   300008  0F                 	db	15
  8972                           
  8973                           ;Config register CONFIG5H @ 0x300009
  8974                           ;	Boot Block Code Protection bit
  8975                           ;	CPB = OFF, Boot block (000000-0007FFh) not code-protected
  8976                           ;	Data EEPROM Code Protection bit
  8977                           ;	CPD = OFF, Data EEPROM not code-protected
  8978   300009                     	org	3145737
  8979   300009  C0                 	db	192
  8980                           
  8981                           ;Config register CONFIG6L @ 0x30000A
  8982                           ;	Write Protection bit
  8983                           ;	WRT0 = OFF, Block 0 (000800-001FFFh) not write-protected
  8984                           ;	Write Protection bit
  8985                           ;	WRT1 = OFF, Block 1 (002000-003FFFh) not write-protected
  8986                           ;	Write Protection bit
  8987                           ;	WRT2 = OFF, Block 2 (004000-005FFFh) not write-protected
  8988                           ;	Write Protection bit
  8989                           ;	WRT3 = OFF, Block 3 (006000-007FFFh) not write-protected
  8990   30000A                     	org	3145738
  8991   30000A  0F                 	db	15
  8992                           
  8993                           ;Config register CONFIG6H @ 0x30000B
  8994                           ;	Configuration Register Write Protection bit
  8995                           ;	WRTC = OFF, Configuration registers (300000-3000FFh) not write-protected
  8996                           ;	Boot Block Write Protection bit
  8997                           ;	WRTB = OFF, Boot block (000000-0007FFh) not write-protected
  8998                           ;	Data EEPROM Write Protection bit
  8999                           ;	WRTD = OFF, Data EEPROM not write-protected
  9000   30000B                     	org	3145739
  9001   30000B  E0                 	db	224
  9002                           
  9003                           ;Config register CONFIG7L @ 0x30000C
  9004                           ;	Table Read Protection bit
  9005                           ;	EBTR0 = OFF, Block 0 (000800-001FFFh) not protected from table reads executed in other
      +                           blocks
  9006                           ;	Table Read Protection bit
  9007                           ;	EBTR1 = OFF, Block 1 (002000-003FFFh) not protected from table reads executed in other
      +                           blocks
  9008                           ;	Table Read Protection bit
  9009                           ;	EBTR2 = OFF, Block 2 (004000-005FFFh) not protected from table reads executed in other
      +                           blocks
  9010                           ;	Table Read Protection bit
  9011                           ;	EBTR3 = OFF, Block 3 (006000-007FFFh) not protected from table reads executed in other
      +                           blocks
  9012   30000C                     	org	3145740
  9013   30000C  0F                 	db	15
  9014                           
  9015                           ;Config register CONFIG7H @ 0x30000D
  9016                           ;	Boot Block Table Read Protection bit
  9017                           ;	EBTRB = OFF, Boot block (000000-0007FFh) not protected from table reads executed in ot
      +                          her blocks
  9018   30000D                     	org	3145741
  9019   30000D  40                 	db	64
  9020                           tosu	equ	0xFFF
  9021                           tosh	equ	0xFFE
  9022                           tosl	equ	0xFFD
  9023                           stkptr	equ	0xFFC
  9024                           pclatu	equ	0xFFB
  9025                           pclath	equ	0xFFA
  9026                           pcl	equ	0xFF9
  9027                           tblptru	equ	0xFF8
  9028                           tblptrh	equ	0xFF7
  9029                           tblptrl	equ	0xFF6
  9030                           tablat	equ	0xFF5
  9031                           prodh	equ	0xFF4
  9032                           prodl	equ	0xFF3
  9033                           indf0	equ	0xFEF
  9034                           postinc0	equ	0xFEE
  9035                           postdec0	equ	0xFED
  9036                           preinc0	equ	0xFEC
  9037                           plusw0	equ	0xFEB
  9038                           fsr0h	equ	0xFEA
  9039                           fsr0l	equ	0xFE9
  9040                           wreg	equ	0xFE8
  9041                           indf1	equ	0xFE7
  9042                           postinc1	equ	0xFE6
  9043                           postdec1	equ	0xFE5
  9044                           preinc1	equ	0xFE4
  9045                           plusw1	equ	0xFE3
  9046                           fsr1h	equ	0xFE2
  9047                           fsr1l	equ	0xFE1
  9048                           bsr	equ	0xFE0
  9049                           indf2	equ	0xFDF
  9050                           postinc2	equ	0xFDE
  9051                           postdec2	equ	0xFDD
  9052                           preinc2	equ	0xFDC
  9053                           plusw2	equ	0xFDB
  9054                           fsr2h	equ	0xFDA
  9055                           fsr2l	equ	0xFD9
  9056                           status	equ	0xFD8

Data Sizes:
    Strings     76
    Constant    0
    Data        54
    BSS         196
    Persistent  0
    Stack       0

Auto Spaces:
    Space          Size  Autos    Used
    COMRAM          126     24     108
    BANK0           128      2     128
    BANK1           256     17      57
    BANK2           256      0       0
    BANK3           256      0       0
    BANK4           256      0       0
    BANK5           256      0       0

Pointer List with Targets:

    vfprintf$2	PTR PTR void  size(2) Largest target is 2
		 -> sprintf@ap(COMRAM[2]), 

    vfprintf$1	PTR const unsigned char  size(2) Largest target is 11
		 -> STR_3(CODE[11]), 

    vfprintf$0	PTR struct _IO_FILE size(2) Largest target is 12
		 -> sprintf@f(COMRAM[12]), 

    S3955$source	PTR const unsigned char  size(2) Largest target is 0

    f...source	PTR const unsigned char  size(2) Largest target is 0

    S3955$buffer	PTR unsigned char  size(2) Largest target is 0

    f...buffer	PTR unsigned char  size(2) Largest target is 0

    Puts1USART@data	PTR unsigned char  size(2) Largest target is 43
		 -> STR_1(CODE[43]), 

    UpdateDisplay@update_datas	PTR unsigned char  size(2) Largest target is 6
		 -> ReadCounter@counter_datas(BANK1[6]), Ds1307HMSRead@ds1307_date_datas(BANK1[3]), 

    sp__ReadCounter	PTR unsigned char  size(2) Largest target is 6
		 -> ReadCounter@counter_datas(BANK1[6]), 

    Ds1307Write@write_datas	PTR unsigned char  size(2) Largest target is 10
		 -> rtc_default_values(BANK1[10]), 

    sp__Ds1307HMSRead	PTR unsigned char  size(2) Largest target is 3
		 -> Ds1307HMSRead@ds1307_date_datas(BANK1[3]), 

    sp__Ds1307Read	PTR unsigned char  size(2) Largest target is 6
		 -> Ds1307Read@ds1307_date_datas(COMRAM[6]), 


Critical Paths under _main in COMRAM

    _VerifyButtons->_ActionButtons
    _ActionButtons->_Ds1307HourSet
    _Ds1307SecondSet->_I2cWrite
    _Ds1307MinuteSet->_I2cWrite
    _Ds1307HourSet->_I2cWrite
    _ReadCounter->___awmod
    _Puts1USART->_Write1USART
    _Ds1307Write->_I2cWrite
    _Ds1307HMSRead->_I2cRead

Critical Paths under _low_isr in COMRAM

    None.

Critical Paths under _high_isr in COMRAM

    _high_isr->_ScanDisplay
    _ScanDisplay->_TLC5917Write

Critical Paths under _main in BANK0

    _main->_ReadCounter
    _VerifyButtons->_ActionButtons
    _UpdateDisplay->_ReadCounter

Critical Paths under _low_isr in BANK0

    None.

Critical Paths under _high_isr in BANK0

    None.

Critical Paths under _main in BANK1

    _main->_UpdateDisplay
    _ReadCounter->___awdiv
    _InitValue->_UpdateDisplay
    _UpdateDisplay->_ReadCounter

Critical Paths under _low_isr in BANK1

    None.

Critical Paths under _high_isr in BANK1

    None.

Critical Paths under _main in BANK2

    None.

Critical Paths under _low_isr in BANK2

    None.

Critical Paths under _high_isr in BANK2

    None.

Critical Paths under _main in BANK3

    None.

Critical Paths under _low_isr in BANK3

    None.

Critical Paths under _high_isr in BANK3

    None.

Critical Paths under _main in BANK4

    None.

Critical Paths under _low_isr in BANK4

    None.

Critical Paths under _high_isr in BANK4

    None.

Critical Paths under _main in BANK5

    None.

Critical Paths under _low_isr in BANK5

    None.

Critical Paths under _high_isr in BANK5

    None.

Call Graph Tables:

 ---------------------------------------------------------------------------------
 (Depth) Function   	        Calls       Base Space   Used Autos Params    Refs
 ---------------------------------------------------------------------------------
 (0) _main                                                 2     2      0    9171
                                             15 BANK1      2     2      0
                       _BlinkDisable
                         _DeviceInit
                      _Ds1307HMSRead
                         _LEDProcess
                        _ReadCounter
                      _UpdateDisplay
                      _VerifyButtons
 ---------------------------------------------------------------------------------
 (1) _VerifyButtons                                        2     2      0    1107
                                              0 BANK1      2     2      0
                      _ActionButtons
 ---------------------------------------------------------------------------------
 (2) _ActionButtons                                        3     3      0    1107
                                             22 COMRAM     2     2      0
                                              0 BANK0      1     1      0
                      _DecValProcess
                      _Ds1307HourSet
                    _Ds1307MinuteSet
                    _Ds1307SecondSet
                      _IncValProcess
                       _StartCounter
                        _StopCounter
                     _UpDownTransfer
 ---------------------------------------------------------------------------------
 (3) _UpDownTransfer                                       0     0      0       0
                     _UpdateSetValue
 ---------------------------------------------------------------------------------
 (3) _StopCounter                                          0     0      0       0
 ---------------------------------------------------------------------------------
 (3) _StartCounter                                         0     0      0       0
 ---------------------------------------------------------------------------------
 (3) _IncValProcess                                        0     0      0       0
                     _UpdateSetValue
 ---------------------------------------------------------------------------------
 (3) _Ds1307SecondSet                                      1     1      0      62
                                             19 COMRAM     1     1      0
                           _I2cStart
                            _I2cStop
                           _I2cWrite
 ---------------------------------------------------------------------------------
 (3) _Ds1307MinuteSet                                      1     1      0      62
                                             19 COMRAM     1     1      0
                           _I2cStart
                            _I2cStop
                           _I2cWrite
 ---------------------------------------------------------------------------------
 (3) _Ds1307HourSet                                        3     3      0     362
                                             19 COMRAM     3     3      0
                           _I2cStart
                            _I2cStop
                           _I2cWrite
 ---------------------------------------------------------------------------------
 (3) _DecValProcess                                        2     2      0       0
                                             18 COMRAM     2     2      0
                     _UpdateSetValue
 ---------------------------------------------------------------------------------
 (4) _UpdateSetValue                                       0     0      0       0
 ---------------------------------------------------------------------------------
 (1) _ReadCounter                                          8     6      2    3448
                                              0 BANK0      2     0      2
                                              4 BANK1      6     6      0
                            ___awdiv
                            ___awmod
 ---------------------------------------------------------------------------------
 (2) ___awmod                                              6     2      4    1513
                                             18 COMRAM     6     2      4
 ---------------------------------------------------------------------------------
 (2) ___awdiv                                              8     4      4    1525
                                             18 COMRAM     4     0      4
                                              0 BANK1      4     4      0
 ---------------------------------------------------------------------------------
 (1) _LEDProcess                                           2     2      0       0
                                             18 COMRAM     2     2      0
 ---------------------------------------------------------------------------------
 (1) _DeviceInit                                           0     0      0    3160
                       _DetectStatus
                         _Ds1307Init
                _EnableAllInterrupts
                          _InitValue
                         _Open1USART
                        _OpenButtons
                        _OpenCounter
                        _OpenDisplay
                         _OpenTimer0
                     _OscillatorInit
                         _Puts1USART
                        _StartTimer0
                        _WriteTimer0
 ---------------------------------------------------------------------------------
 (2) _WriteTimer0                                          4     2      2     544
                                             18 COMRAM     4     2      2
 ---------------------------------------------------------------------------------
 (2) _StartTimer0                                          0     0      0       0
 ---------------------------------------------------------------------------------
 (2) _Puts1USART                                           2     0      2     142
                                             19 COMRAM     2     0      2
                         _Busy1USART
                        _Write1USART
 ---------------------------------------------------------------------------------
 (3) _Write1USART                                          1     1      0      22
                                             18 COMRAM     1     1      0
 ---------------------------------------------------------------------------------
 (3) _Busy1USART                                           0     0      0       0
 ---------------------------------------------------------------------------------
 (2) _OscillatorInit                                       0     0      0       0
 ---------------------------------------------------------------------------------
 (2) _OpenTimer0                                           1     1      0      44
                                             18 COMRAM     1     1      0
 ---------------------------------------------------------------------------------
 (2) _OpenDisplay                                          1     1      0      90
                                             18 COMRAM     1     1      0
                        _TLC5917Init
 ---------------------------------------------------------------------------------
 (3) _TLC5917Init                                          0     0      0       0
 ---------------------------------------------------------------------------------
 (2) _OpenCounter                                          0     0      0       0
 ---------------------------------------------------------------------------------
 (2) _OpenButtons                                          0     0      0       0
 ---------------------------------------------------------------------------------
 (2) _Open1USART                                           3     1      2     252
                                             18 COMRAM     3     1      2
 ---------------------------------------------------------------------------------
 (2) _InitValue                                            0     0      0    2088
                      _Ds1307HMSRead
                        _Ds1307Write
                      _UpdateDisplay
 ---------------------------------------------------------------------------------
 (1) _UpdateDisplay                                        5     1      4    1033
                                             10 BANK1      5     1      4
                      _Ds1307HMSRead (ARG)
                        _MarkDisplay
                        _ReadCounter (ARG)
 ---------------------------------------------------------------------------------
 (2) _MarkDisplay                                          3     3      0      31
                                             18 COMRAM     3     3      0
 ---------------------------------------------------------------------------------
 (3) _Ds1307Write                                          4     2      2     700
                                             19 COMRAM     4     2      2
                           _I2cStart
                            _I2cStop
                           _I2cWrite
 ---------------------------------------------------------------------------------
 (1) _Ds1307HMSRead                                        5     3      2     355
                                             20 COMRAM     2     0      2
                                              0 BANK1      3     3      0
                            _I2cRead
                         _I2cRestart
                           _I2cStart
                            _I2cStop
                           _I2cWrite
 ---------------------------------------------------------------------------------
 (4) _I2cWrite                                             1     1      0      31
                                             18 COMRAM     1     1      0
                            _I2cWait
 ---------------------------------------------------------------------------------
 (4) _I2cStart                                             0     0      0       0
 ---------------------------------------------------------------------------------
 (2) _I2cRestart                                           0     0      0       0
 ---------------------------------------------------------------------------------
 (2) _I2cRead                                              2     2      0      68
                                             18 COMRAM     2     2      0
                            _I2cWait
 ---------------------------------------------------------------------------------
 (5) _I2cWait                                              0     0      0       0
                            _I2cStop
 ---------------------------------------------------------------------------------
 (6) _I2cStop                                              0     0      0       0
 ---------------------------------------------------------------------------------
 (2) _EnableAllInterrupts                                  0     0      0       0
 ---------------------------------------------------------------------------------
 (2) _Ds1307Init                                           0     0      0       0
                            _I2cInit
 ---------------------------------------------------------------------------------
 (3) _I2cInit                                              0     0      0       0
 ---------------------------------------------------------------------------------
 (2) _DetectStatus                                         0     0      0       0
 ---------------------------------------------------------------------------------
 (1) _BlinkDisable                                         1     1      0      68
                                             18 COMRAM     1     1      0
 ---------------------------------------------------------------------------------
 Estimated maximum stack depth 6
 ---------------------------------------------------------------------------------
 (Depth) Function   	        Calls       Base Space   Used Autos Params    Refs
 ---------------------------------------------------------------------------------
 (7) _low_isr                                              3     3      0       0
                                             15 COMRAM     3     3      0
                        _ScanCounter
 ---------------------------------------------------------------------------------
 (8) _ScanCounter                                          0     0      0       0
 ---------------------------------------------------------------------------------
 Estimated maximum stack depth 8
 ---------------------------------------------------------------------------------
 (Depth) Function   	        Calls       Base Space   Used Autos Params    Refs
 ---------------------------------------------------------------------------------
 (9) _high_isr                                             4     4      0     804
                                             11 COMRAM     4     4      0
                        _ScanButtons
                        _ScanDisplay
                            ___lwdiv
                      i2_ScanCounter
                      i2_WriteTimer0
 ---------------------------------------------------------------------------------
 (10) i2_WriteTimer0                                       4     2      2     276
                                              0 COMRAM     4     2      2
 ---------------------------------------------------------------------------------
 (10) i2_ScanCounter                                       0     0      0       0
 ---------------------------------------------------------------------------------
 (10) ___lwdiv                                             7     3      4     314
                                              0 COMRAM     7     3      4
 ---------------------------------------------------------------------------------
 (10) _ScanDisplay                                         5     5      0     214
                                              6 COMRAM     5     5      0
                       _TLC5917Write
 ---------------------------------------------------------------------------------
 (11) _TLC5917Write                                        6     4      2     190
                                              0 COMRAM     6     4      2
 ---------------------------------------------------------------------------------
 (10) _ScanButtons                                         0     0      0       0
 ---------------------------------------------------------------------------------
 Estimated maximum stack depth 11
 ---------------------------------------------------------------------------------

 Call Graph Graphs:

 _main (ROOT)
   _BlinkDisable
   _DeviceInit
     _DetectStatus
     _Ds1307Init
       _I2cInit
     _EnableAllInterrupts
     _InitValue
       _Ds1307HMSRead
         _I2cRead
           _I2cWait
             _I2cStop
         _I2cRestart
         _I2cStart
         _I2cStop
         _I2cWrite
           _I2cWait
       _Ds1307Write
         _I2cStart
         _I2cStop
         _I2cWrite
       _UpdateDisplay
         _Ds1307HMSRead (ARG)
         _MarkDisplay (ARG)
         _ReadCounter (ARG)
           ___awdiv
           ___awmod
     _Open1USART
     _OpenButtons
     _OpenCounter
     _OpenDisplay
       _TLC5917Init
     _OpenTimer0
     _OscillatorInit
     _Puts1USART
       _Busy1USART
       _Write1USART
     _StartTimer0
     _WriteTimer0
   _Ds1307HMSRead
   _LEDProcess
   _ReadCounter
   _UpdateDisplay
   _VerifyButtons
     _ActionButtons
       _DecValProcess
         _UpdateSetValue
       _Ds1307HourSet
         _I2cStart
         _I2cStop
         _I2cWrite
       _Ds1307MinuteSet
         _I2cStart
         _I2cStop
         _I2cWrite
       _Ds1307SecondSet
         _I2cStart
         _I2cStop
         _I2cWrite
       _IncValProcess
         _UpdateSetValue
       _StartCounter
       _StopCounter
       _UpDownTransfer
         _UpdateSetValue

 _low_isr (ROOT)
   _ScanCounter

 _high_isr (ROOT)
   _ScanButtons
   _ScanDisplay
     _TLC5917Write
   ___lwdiv
   i2_ScanCounter
   i2_WriteTimer0

 Address spaces:
Name               Size   Autos  Total    Cost      Usage
BIGRAM             5FF      0       0      33        0.0%
EEDATA             100      0       0       0        0.0%
BITBANK5           100      0       0      14        0.0%
BANK5              100      0       0      15        0.0%
BITBANK4           100      0       0      12        0.0%
BANK4              100      0       0      13        0.0%
BITBANK3           100      0       0      10        0.0%
BANK3              100      0       0      11        0.0%
BITBANK2           100      0       0       8        0.0%
BANK2              100      0       0       9        0.0%
BITBANK1           100      0       0       6        0.0%
BANK1              100     11      39       7       22.3%
BITBANK0            80      0       0       4        0.0%
BANK0               80      2      80       5      100.0%
BITCOMRAM           7E      0       0       0        0.0%
COMRAM              7E     18      6C       1       85.7%
BITBIGSFRhhhll      18      0       0      17        0.0%
BITBIGSFRlhllhh      D      0       0      22        0.0%
BITBIGSFRhhhh        D      0       0      16        0.0%
BITBIGSFRllllh       6      0       0      30        0.0%
BITBIGSFRlllh        5      0       0      29        0.0%
BITBIGSFRllh         5      0       0      28        0.0%
BITBIGSFRlhllhl      4      0       0      25        0.0%
BITBIGSFRlhhhh       2      0       0      19        0.0%
BITBIGSFRlhlh        2      0       0      21        0.0%
BITBIGSFRlhllhl      1      0       0      24        0.0%
BITBIGSFRlhllhl      1      0       0      23        0.0%
BITBIGSFRlhllhl      1      0       0      26        0.0%
BITBIGSFRlhhl        1      0       0      20        0.0%
BITBIGSFRlhlll       1      0       0      27        0.0%
BITBIGSFRhl          1      0       0      18        0.0%
BITBIGSFRlllll       1      0       0      31        0.0%
BIGSFR               0      0       0     200        0.0%
BITSFR               0      0       0     200        0.0%
SFR                  0      0       0     200        0.0%
STACK                0      0       0       2        0.0%
NULL                 0      0       0       0        0.0%
ABS                  0      0     125      32        0.0%
DATA                 0      0     125       3        0.0%
CODE                 0      0       0       0        0.0%


Microchip Technology PIC18 Macro Assembler V2.41 build 20230208172133 
Symbol Table                                                                                   Tue Dec 05 17:38:01 2023

                             l7 2A60                 ??_UpdateDisplay 0065                     _SSPSTATbits 0FC7  
                            l51 1ABE                              l28 2A6E                              l52 1ADA  
                            l61 204C                              l62 2068                              l70 2964  
                            l47 1F56                              l55 1B20                              l57 1BE0  
                            l73 2946                              l67 20E4                 ?_UpDownTransfer 004D  
                  ___awdiv@sign 0129                              bsr 0FE0        ReadCounter@counter_datas 012C  
     UpdateDisplay@end_position 0135                     ?_LEDProcess 004D                             l130 2A0E  
                           l124 29D8                             l133 2A24                             l142 2A20  
                           l127 2A00                             l136 2A32                             l160 286A  
                           l152 296C                             l145 2908                             l161 287E  
                           l147 2916                             l163 288C                             l139 2A12  
                           l155 297E                             l331 134C                             l164 288E  
                           l149 2928                             l158 285C                             l355 2714  
                           l363 1CD2                             l348 146A                             l381 243A  
                           l800 2A7C                             l378 23FA                             l467 28B6  
                           l475 29EA                             l388 24C6                             l397 29FC  
                           l901 2698                             l469 28B8                             l902 26B0  
                           l478 2A86                             l930 12EE                             l925 27E4  
                           l694 2A8A                             l782 275C                             l980 2906  
                           l788 1920                             l797 2A82            __end_of_BlinkDisable 2908  
                   ?_Ds1307Init 004D                             _cnt 00B6                    ___awmod@sign 0064  
                           wreg 0FE8                      _TXSTA1bits 0FAC                ??_UpdateSetValue 005F  
                 ??_MarkDisplay 005F                 __end_of_I2cInit 29DA                 __end_of_I2cRead 2890  
               __end_of_I2cWait 292A                 __end_of_I2cStop 2A34                _SYSTEM_STATE_FLG 0048  
                          l1203 08A8                            l1141 0DCC                            l1206 090C  
                          l1119 25CC                            l1160 0F7A                            l1209 0970  
                          l1153 0ED6                            l1170 1058                            l1146 0E32  
                          l1138 0D8E                            l1163 0FB8                            l1156 0F14  
                          l1172 10D4                            l1181 06A6                            l1149 0E70  
                          l1182 06D8                            l1183 06D4                            l1167 101A  
                          l1184 0D5E                            l1281 2A52                            l1273 201E  
                          l1265 2856                            l1185 06E6                            l1258 0CBE  
                          l2173 21AA                            l1278 281E                            l1199 0826  
                          l1810 27A2                            l2186 231A                            l1805 275E  
                          l1770 2212                            l1772 2228                            l1781 29AE  
                          l1774 223E                            l1775 2240                            l1768 21FC  
                          l1777 226A                            l1793 28E0                            l6133 29C6  
                          l6135 29CC                            l6411 29A6                            l6501 255A  
                          l6421 28CA                            l7311 28F4                            l7303 28E2  
                          l6431 2A6A                            l6415 29AC                            l6423 28DA  
                          l7313 28F6                            l6441 23E0                            l6433 2A88  
                          l6521 21AE                            l6409 2998                            l6425 28DC  
                          l6451 2432                            l6443 23EE                            l6435 23AE  
                          l6531 21D8                            l6523 21B6                            l6427 2A54  
                          l6419 28BC                            l7309 28E6                            l6445 2408  
                          l6437 23C4                            l6429 2A62                            l6541 220C  
                          l6533 21E6                            l6525 21C4                            l6461 28A2  
                          l6453 2892                            l7253 1BE2                            l6447 2416  
                          l6439 23D2                            l9103 2A22                            l9111 2968  
                          l6551 225A                            l6543 2214                            l6535 21E8  
                          l6527 21C6                            l6471 2752                            l6287 29EC  
                          l6463 28B0                            l6455 2898                            l7271 1C30  
                          l7263 1C08                            l7255 1BEC                            l6449 2424  
                          l9105 2908                            l9121 286E                            l9113 297A  
                          l9201 113C                            l6553 2268                            l6545 2222  
                          l6537 21F6                            l6529 21D4                            l6473 2754  
                          l6481 2642                            l6457 289C                            l6465 29DA  
                          l7281 1C6E                            l7273 1C34                            l7265 1C18  
                          l7257 1BFC                            l9107 2924                            l9123 2872  
                          l9115 2A10                            l6547 222A                            l6539 21FE  
                          l6475 2756                            l6491 266A                            l6483 2662  
                          l6459 28A0                            l6555 275E                            l6467 2A84  
                          l7275 1C4A                            l7291 1CBE                            l7267 1C1E  
                          l7259 1C02                            l9125 287C                            l9117 285A  
                          l9109 29FE                            l9301 1E9C                            l9221 114E  
                          l9205 1142                            l9141 10EE                            l9133 10E2  
                          l6549 2238                            l6477 2758                            l6469 2716  
                          l6493 2686                            l6485 2666                            l6557 2772  
                          l7277 1C4C                            l7269 1C20                            l9119 285A  
                          l9311 1EBE                            l9303 1EA2                            l9127 10D8  
                          l6479 275A                            l6495 2688                            l6559 2782  
                          l7279 1C62                            l9321 1F06                            l9313 1ED2  
                          l9305 1EAA                            l9241 1166                            l9233 115A  
                          l9225 1154                            l9209 1148                            l9161 110C  
                          l9153 1100                            l9145 10F4                            l9137 10E8  
                          l9129 10DC                            l6497 269C                            l7289 1C74  
                          l9401 2098                            l9331 1F26                            l9323 1F0E  
                          l9315 1EE2                            l9307 1EB2                            l6499 2550  
                          l9411 20D4                            l9403 20A8                            l9333 1F2C  
                          l9325 1F14                            l9317 1EEC                            l9309 1EBA  
                          l9261 117E                            l9253 1172                            l9237 1160  
                          l9181 1124                            l9173 111E                            l9165 1112  
                          l9157 1106                            l9149 10FA                            l9501 1FB8  
                          l9413 20DA                            l9405 20C6                            l9421 2954  
                          l9335 1F3C                            l9327 1F1A                            l9319 1F00  
                          l9351 1AD6                            l9343 1A88                            l9511 1FEE  
                          l9503 1FBE                            l9415 20E0                            l9407 20CA  
                          l9423 295A                            l9431 2936                            l9337 1F4C  
                          l9329 1F20                            l9361 1B38                            l9353 1AF0  
                          l9345 1A98                            l9281 1196                            l9273 118A  
                          l9257 1178                            l9249 116C                            l9185 112A  
                          l9169 1118                            l9441 27CE                            l9521 2452  
                          l9513 2016                            l9505 1FCC                            l9409 20CE  
                          l9425 2960                            l9417 294A                            l9433 293C  
                          l9601 07F4                            l9339 1F4E                            l9371 1B5C  
                          l9363 1B3C                            l9347 1AA8                            l9355 1AFA  
                          l9443 27D2                            l9523 246C                            l9531 24AC  
                          l9515 201A                            l9507 1FDC                            l9419 294E  
                          l9435 2942                            l9427 292C                            l9451 27F6  
                          l9611 0848                            l9603 0822                            l9381 1BB2  
                          l9373 1B6A                            l9365 1B4C                            l9357 1B0A  
                          l9349 1AB8                            l9277 1190                            l9269 1184  
                          l9197 1136                            l9189 1130                            l9437 27A4  
                          l9533 24BE                            l9525 247C                            l9517 243C  
                          l9293 2A46                            l9509 1FE0                            l9429 2930  
                          l9445 2A7E                            l9461 280E                            l9453 27FA  
                          l9621 0872                            l9605 083A                            l9541 0682  
                          l9295 1E88                            l9383 1BC4                            l9375 1B7C  
                          l9367 1B50                            l9359 1B1A                            l9287 119C  
                          l9439 27AE                            l9527 248C                            l9519 244E  
                          l9391 2036                            l9471 2822                            l9447 2A78  
                          l9463 2812                            l9455 27FE                            l9631 08C4  
                          l9623 0876                            l9615 0854                            l9607 083E  
                          l9551 06D0                            l9543 0692                            l9535 064E  
                          l9297 1E8C                            l9385 1BD6                            l9377 1B8E  
                          l9369 1B56                            l9529 249C                            l9393 2046  
                          l9481 2850                            l9473 2834                            l9465 2816  
                          l9457 2802                            l9449 27E6                            l9801 0BCC  
                          l9721 0AC6                            l9705 0A6C                            l9641 08D6  
                          l9625 08A4                            l9617 0858                            l9609 0842  
                          l9561 071C                            l9553 06DC                            l9545 06A2  
                          l9537 065E                            l9299 1E92                            l9379 1BA0  
                          l9491 1F90                            l9395 2064                            l9387 2022  
                          l9475 2838                            l9483 2852                            l9467 281A  
                          l9459 280A                            l9803 0BD0                            l9723 0ACA  
                          l9715 0A78                            l9707 0A70                            l9651 0928  
                          l9643 08DA                            l9627 08BC                            l9619 086E  
                          l9571 075C                            l9563 0720                            l9547 06AE  
                          l9539 0672                            l9493 1F94                            l9485 1F58  
                          l9397 207E                            l9389 2026                            l9477 283A  
                          l9469 2820                            l9805 0BD4                            l9813 0BDC  
                          l9741 0AFA                            l9733 0AE2                            l9725 0ACE  
                          l9717 0AAA                            l9661 096C                            l9653 0932  
                          l9645 0908                            l9637 08CE                            l9629 08C0  
                          l9581 07A4                            l9565 0730                            l9573 0768  
                          l9557 06EA                            l9549 06BE                            l9495 1F96  
                          l9487 1F5A                            l9399 2088                            l9479 284C  
                          l9815 0C1E                            l9751 0B2A                            l9743 0B0A  
                          l9727 0AD6                            l9719 0AB6                            l9671 0996  
                          l9663 0984                            l9655 0936                            l9647 0920  
                          l9639 08D2                            l9591 07CA                            l9583 07B4  
                          l9575 0778                            l9567 0744                            l9559 06EE  
                          l9921 2106                            l9913 20E6                            l9497 1FA4  
                          l9489 1F68                            l9825 0C40                            l9817 0C22  
                          l9745 0B1A                            l9729 0ADA                            l9681 0A0C  
                          l9673 09E0                            l9665 0988                            l9657 093A  
                          l9649 0924                            l9593 07D2                            l9585 07BC  
                          l9577 078C                            l9569 0748                            l9931 213A  
                          l9923 2114                            l9915 20EC                            l9499 1FB4  
                          l9851 0C7A                            l9843 0C6E                            l9835 0C62  
                          l9827 0C44                            l9819 0C38                            l9763 0B46  
                          l9739 0AEA                            l9691 0A24                            l9683 0A10  
                          l9667 098C                            l9659 093E                            l9595 07D6  
                          l9579 0790                            l9587 07C0                            l9941 2174  
                          l9933 2142                            l9925 211C                            l9917 20FA  
                          l9845 0C72                            l9837 0C66                            l9829 0C5A  
                          l9765 0B4E                            l9757 0B32                            l9685 0A18  
                          l9677 09F8                            l9597 07EC                            l9589 07C4  
                          l9951 219A                            l9943 217C                            l9935 214A  
                          l9927 2120                            l9919 2102                            l9783 0BB0  
                          l9775 0B62                            l9695 0A2C                            l9687 0A1C  
                          l9679 0A08                            l9599 07F0                            STR_1 0601  
                          l9953 21A2                            l9945 217E                            l9937 2158  
                          l9929 2128                            l9961 227E                            l9785 0BB4  
                          l9777 0BA4                            STR_3 0642                            STR_4 062C  
                          l9947 2184                            l9939 215E                            l9971 22B2  
                          l9963 2286                            l9883 0CCA                            l9875 0CA2  
                          l9867 0C8E                            l9787 0BB8                            l9699 0A40  
                          l9949 218A                            l9981 22EE                            l9973 22BA  
                          l9965 228A                            l9957 226C                            l9877 0CB2  
                          l9797 0BC0                            l9983 22F4                            l9975 22C2  
                          l9967 2298                            l9959 2270                            l9799 0BC8  
                          l9887 0D14                            l9993 26B2                            l9977 22D0  
                          l9985 22FA                            l9969 22A0                            l9995 26B6  
                          l9987 230A                            l9979 22E6                            l9997 26BA  
                          l9989 2312                            l9999 26C2                            u4100 23D2  
                          u4101 23CE                            u4110 23E0                            u4111 23DC  
                          u4120 23EE                            u4121 23EA                            u4130 2408  
                          u4131 2404                            u4140 2416                            u4300 2238  
                          u4060 29A6                            u4141 2412                            u4301 2234  
                          u4061 29A2                            u4150 2424                            u4310 225A  
                          u4070 28CA                            u4151 2420                            u4311 2256  
                          u4071 28C6                            _PIE1 0F9D                            u4160 2432  
                          u4320 2268                            u4240 21C4                            u4080 28DA  
                          u5200 1C62                            u4161 242E                            u4321 2264  
                          u4241 21C0                            u4081 28D6                            u5201 1C5E  
                          u4090 23C4                            u4250 21D4                            u4170 28B0  
                          u4330 2772                            u5210 1CCE                            u4091 23C0  
                          u4251 21D0                            u4171 28AC                            u4331 276E  
                          u5211 1CCA                            u5220 2906                            u4260 21E6  
                          u4180 2698                            u4340 27A2                            u5221 2902  
                          u4261 21E2                            u4181 2694                            u4341 279E  
                          u4270 21F6                            u4271 21F2                            u4280 220C  
                          u5160 1BFC                            u7000 20C6                            u4281 2208  
                          u5161 1BF8                            u7001 20C2                            u7010 27E4  
                          u4290 2222                            u5170 1C18                            u7011 27E0  
                          u4291 221E                            u5171 1C14                            u5180 1C30  
                          u7100 1FDC                            u7020 27F6                            u5181 1C2C  
                          u7101 1FD8                            u7021 27F2                            u5190 1C4A  
                          u7110 1FEE                            u7030 2834                            u5191 1C46  
                          u7111 1FEA                            u7031 2830                            u7120 2016  
                          u7040 284C                            u7200 0692                            u7121 2012  
                          u7041 2848                            u7201 068E                            u7130 244E  
                          u7050 1F68                            u7210 06A2                            u7131 244A  
                          u7051 1F64                            u7211 069E                            u7140 247C  
                          u7060 1F90                            u7300 07A4                            u7220 06BE  
                          u8020 1308                            u7141 2478                            u7061 1F8C  
                          u7301 07A0                            u7221 06BA                            u8021 1304  
                          u7150 248C                            u7070 1FA4                            u7310 07B4  
                          u7230 06D0                            u8030 1336                            u7151 2488  
                          u7071 1FA0                            u7311 07B0                            u7231 06CC  
                          u8031 1332                            u7160 249C                            u7080 1FB4  
                          u7400 096C                            u7320 07EC                            u7240 071C  
                          u8040 1348                            u7161 2498                            u7081 1FB0  
                          u7401 0968                            u7321 07E8                            u7241 0718  
                          u8041 1344                            u7170 24BE                            u7090 1FCC  
                          u7410 0984                            u7330 0822                            u7250 0730  
                          u8050 1466                            u7171 24BA                            u7091 1FC8  
                          u7411 0980                            u7331 081E                            u7251 072C  
                          u8051 1462                            u7500 0B42                            u7420 09F4  
                          u7340 083A                            u7260 0744                            u7180 065E  
                          u7501 0B3E                            u7421 09F0                            u7341 0836  
                          u7261 0740                            u7181 065A                            u6710 2A32  
                          u7510 0B5E                            u7430 0A08                            u7350 086E  
                          u7270 075C                            u7190 0682                            u6711 2A2E  
                          u7511 0B5A                            u7431 0A04                            u7351 086A  
                          u7271 0758                            u7191 067E                            u6720 2916  
                          u6800 1ECE                            u7600 2158                            u7520 0C38  
                          u7440 0A3C                            u7360 08A4                            u7280 0778  
                          u6721 2912                            u6801 1EC8                            u7601 2154  
                          u7521 0C34                            u7441 0A38                            u7361 08A0  
                          u7281 0774                            u6730 2924                            u6810 1ED0  
                          u7610 2174                            u7530 0C5A                            u7450 0A64  
                          u7370 08BC                            u7290 078C                            u6731 2920  
                          u7611 2170                            u7531 0C56                            u7451 0A5E  
                          u7371 08B8                            u7291 0788                            u6740 2A0E  
                          u6820 1EE2                            u6900 1AF0                            u7620 219A  
                          u7540 0C8A                            u7460 0A66                            u7380 0908  
                          u7700 0D8A                            u6741 2A0A                            u6821 1EDE  
                          u6901 1AEC                            u7621 2196                            u7541 0C86  
                          u7381 0904                            u7701 0D86                            u6750 297A  
                          u6830 1EFC                            u6910 1B0A                            u7630 227E  
                          u7550 0C9E                            u7470 0AC6                            u7390 0920  
                          u7710 0DB8                            u6751 2976                            u6831 1EF6  
                          u6911 1B06                            u7631 227A                            u7551 0C9A  
                          u7471 0AC2                            u7391 091C                            u7711 0DB4  
                          u6760 2A20                            u6840 1EFE                            u6920 1B1A  
                          u7640 2298                            u7560 0CB2                            u7480 0AFA  
                          u7800 0ED2                            u7720 0DC8                            u6761 2A1C  
                          u6921 1B16                            u7641 2294                            u7561 0CAE  
                          u7481 0AF6                            u7801 0ECE                            u7721 0DC4  
                          u6770 286A                            u6850 1F3C                            u6930 1B38  
                          u7570 20FA                            u7650 22B2                            u7490 0B1A  
                          u7810 0F00                            u7730 0DEC                            u6771 2866  
                          u6851 1F38                            u6931 1B34                            u7571 20F6  
                          u7651 22AE                            u7491 0B16                            u7811 0EFC  
                          u7731 0DE8                            u6860 1F4C                            u7580 2114  
                          u7660 22D0                            u6940 2036                            u7900 1016  
                          u7820 0F10                            u7740 0E1E                            u6861 1F48  
                          u7581 2110                            u7661 22CC                            u6941 2032  
                          u7901 1012                            u7821 0F0C                            u7741 0E1A  
                          u6790 288C                            u6870 1AA8                            u7590 213A  
                          u7670 22E6                            u6950 2046                            u7910 1044  
                          u7830 0F34                            u7750 0E2E                            u6791 2888  
                          u6871 1AA4                            u7591 2136                            u7671 22E2  
                          u6951 2042                            u7911 1040                            u7831 0F30  
                          u7751 0E2A                            u6880 1AB8                            u7680 230A  
                          u6960 2064                            u7920 1054                            u7840 0F66  
                          u7760 0E5C                            u6785 287A                            u6881 1AB4  
                          u7681 2306                            u6961 2060                            u7921 1050  
                          u7841 0F62                            u7761 0E58                            u6786 287C  
                          u6890 1AD6                            u6970 207E                            u7930 1078  
                          u7850 0F76                            u7770 0E6C                            u7690 0D7A  
                          u6891 1AD2                            u6971 207A                            u7931 1074  
                          u7851 0F72                            u7771 0E68                            u7691 0D76  
                          u7940 17CA                            u6980 2098                            u7860 0FA4  
                          u7780 0E90                            u7941 17C6                            u6981 2094  
                          u7861 0FA0                            u7781 0E8C                            u7950 186E  
                          u6990 20A8                            u7870 0FB4                            u7790 0EC2  
                          u7951 186A                            u6991 20A4                            u7871 0FB0  
                          u7791 0EBE                            u7880 0FD8                            u7881 0FD4  
                          u7890 1006                            u7891 1002                            _TMR2 0FCC  
          __end_of_DetectStatus 243C                            _main 12F0                    ?_Ds1307Write 0060  
                          fsr2h 0FDA                            indf1 0FE7                            indf2 0FDF  
                          fsr1l 0FE1                            fsr2l 0FD9                            btemp 006D  
                          start 0058                    ?_TLC5917Init 004D                   ??_ReadCounter 0065  
                  ___param_bank 0000                __end_of_I2cStart 2A10                __end_of_I2cWrite 2980  
                    _DeviceInit 26B2                           l10001 26C6                           l10011 26E4  
                         l10003 26CC                           l10021 270A                           l10013 26E8  
                         l10005 26D8                           l10101 0FC0                           l10015 26EC  
                         l10007 26DC                           l10111 1026                           l10103 0FD8  
                         l10031 0D9A                           l10023 0D60                           l10017 26F0  
                         l10009 26E0                           l10121 1060                           l10113 102E  
                         l10105 0FF0                           l10041 0DD4                           l10033 0DA2  
                         l10025 0D64                           l10201 12F8                           l10019 26FE  
                         l10123 1078                           l10115 1044                           l10107 1006  
                         l10051 0E3E                           l10043 0DEC                           l10035 0DB8  
                         l10027 0D7A                           l10211 133A                           l10203 1308  
                         l10141 186E                           l10117 1054                           l10109 1016  
                         l10061 0E78                           l10053 0E46                           l10045 0E08  
                         l10037 0DC8                           l10029 0D8A                           l10221 1362  
                         l10205 131C                           l10143 1916                           l10135 17BA  
                         l10071 0EE2                           l10063 0E90                           l10055 0E5C  
                         l10047 0E1E                           l10127 1090                           l10231 1382  
                         l10223 136C                           l10215 134E                           l10207 1324  
                         l10137 17CA                           l10081 0F1C                           l10073 0EEA  
                         l10065 0EAC                           l10057 0E6C                           l10049 0E2E  
                         l10241 13A2                           l10233 1388                           l10225 1370  
                         l10217 1356                           l10209 1336                           l10139 185E  
                         l10091 0F86                           l10083 0F34                           l10075 0F00  
                         l10067 0EC2                           l10251 13B8                           l10243 13A6  
                         l10235 1390                           l10227 1376                           l10219 135E  
                         l10093 0F8E                           l10085 0F50                           l10077 0F10  
                         l10069 0ED2                           l10261 1410                           l10253 13BC  
                         l10245 13AC                           l10237 1394                           l10229 137E  
                         l10095 0FA4                           l10087 0F66                           l10263 142A  
                         l10247 13B0                           l10239 139A                           l10097 0FB4  
                         l10089 0F76                           l10273 146A                           l10249 13B4  
                         l10267 1432                           l10259 13C4                           l10277 1488  
                         l10269 1456                           l10197 12F0                           l10631 149E  
                         l10199 12F4                           l10641 0BF0                           l10633 10A6  
                         l10643 0CDE                           l10635 09AA                           l10627 13DA  
                         l10645 0D28                           l10637 0A8C                           l10629 1448  
                         l10647 1C88                           l10639 0B76                           l10649 11B0  
               ??i2_ScanCounter 004D                           ?_main 004D                   ??_ScanDisplay 0053  
               __end_of___awdiv 21AC                           _EEADR 0FA9                 __end_of___awmod 231C  
                    _Gateway_IP 0124                           _T0CON 0FD5                 ___awdiv@divisor 0061  
                         _T1CON 0FCD                           _T2CON 0FCA                           _T3CON 0FB1  
                 ??_ScanCounter 005C                 __end_of___lwdiv 2642                           i2l401 2530  
                         i2l402 254E                           i1l804 1DAC                           i1l691 0048  
                         i2l475 2A44                           i2l804 1E86                           i2l910 16D0  
                         i2l911 16D6                           i2l912 16DC                           i2l913 16E2  
                         i2l914 16E8                           i2l915 16EE                           i2l907 16C4  
                         i2l684 1A7C                           i2l909 16CA                           i2l669 1A5A  
                         i2l919 17B8                 ___awdiv@counter 0128                   ??_ScanButtons 004D  
          _continue_pressed_cnt 000A                           _TMR0H 0FD7                           _TMR1H 0FCF  
                         _TMR0L 0FD6                           _TMR1L 0FCE                           _TMR3H 0FB3  
                         _TMR3L 0FB2              _rtc_default_values 010C                      _Busy1USART 2998  
                 _Ds1307HMSRead 1E88                 __end_of_low_isr 0058                           tablat 0FF5  
           __end_of_MarkDisplay 12F0                           ttemp5 006E                           ttemp6 0071  
                         ttemp7 0075                           status 0FD8                           wtemp8 006E  
    Ds1307SecondSet@second_data 0060                   _DecValProcess 1F58                 __initialization 231C  
                 _Ds1307HourSet 2020                    __end_of_main 14C8                   ?_TLC5917Write 004D  
           _up_btn_released_cnt 00BE                   ??_OpenDisplay 005F                   ??_OpenCounter 005F  
                    _Open1USART 21AC                   ??_OpenButtons 005F     UpdateDisplay@start_position 0134  
                        ??_main 0137             __end_of_ReadCounter 1922                   i2_WriteTimer0 2A34  
                     ??_I2cInit 005F                       ??_I2cRead 005F                       ??_I2cWait 005F  
                _OscillatorInit 2A54                   __activetblptr 0002                       ??_I2cStop 005F  
                ?_Ds1307HMSRead 0061             __end_of_ScanDisplay 17BA                          _ADCON0 0FC2  
                        _ADCON1 0FC1          Ds1307Write@write_datas 0060                          _EEDATA 0FA8  
           __end_of_ScanCounter 1DAE                          _EECON2 0FA7                ___awdiv@dividend 005F  
           __end_of_ScanButtons 164E                          _S0_DIP 00E0                          _S1_DIP 00DC  
                        i1l4151 1D10                          i1l4143 1CE8                          i1l4161 1D3E  
                        i1l4153 1D12                          i1l4145 1CF8                          i1l4163 1D4E  
                        i1l4171 1D7E                          i1l4155 1D24                          i1l4147 1CFA  
                        i1l4139 1CD4                          i2l1132 164C                          i1l4181 1D98  
                        i1l4173 1D82                          i1l4165 1D5E                          i1l4157 1D28  
                        i1l4149 1D0C                          i1l4183 1DA6                          i1l4175 1D84  
                        i1l4167 1D6E                          i1l4159 1D2E                          i1l4185 1DAA  
                        i1l4177 1D92                          _S2_DIP 00D8                          i1l4179 1D96  
                        i2l2440 2640                          i2l2433 2638                          i1l4841 0026  
                    _OpenTimer0 2890                          _S3_DIP 00D4                          i1l4843 0034  
                        i1l4845 0042                          i1l4847 0044                          _S4_DIP 00D0  
                        i2l7401 157A                          _S5_DIP 00CC                          i2l7411 15AA  
                        i2l7403 157E                          i2l7331 1660                          i2l7421 15D0  
                        i2l7413 15B0                          i2l7405 1582                          i2l7341 16F0  
                        i2l7333 1670                          i2l7431 160C                          i2l7423 15DE  
                        i2l7415 15BE                          i2l7407 1590                          i2l7351 1772  
                        i2l7343 16F4                          i2l7335 168C                          i2l7327 164E  
                        i2l7441 163E                          i2l7433 1616                          i2l7425 15F0  
                        i2l7417 15C8                          i2l7409 15A2                          i2l6561 24C8  
                        i2l7353 1786                          i2l7337 16B2                          i2l7329 165E  
                        i2l7443 1646                          i2l7435 161A                          i2l7427 15F8  
                        i2l7419 15CC                          i2l7371 14E4                          i2l6571 24F8  
                        i2l6563 24D6                          i2l7355 1788                          i2l7347 16FA  
                        i2l7339 16B6                          i2l7437 161E                          i2l7429 15FE  
                        i2l7381 1514                          i2l7373 14E8                          i2l7365 14C8  
                        i2l6581 251E                          i2l6573 2500                          i2l7357 1798  
                        i2l7349 1754                          i2l7701 1DD2                          i2l7439 162C  
                        i2l7391 1542                          i2l7383 1522                          i2l7375 14F6  
                        i2l7367 14D6                          i2l6583 2520                          i2l6575 2502  
                        i2l7359 17A8                          i2l7711 1DFE                          i2l7703 1DD4  
                        i2l7393 1554                          i2l7385 152C                          i2l7377 1506  
                        i2l7369 14E0                          i2l6585 2546                          i2l6577 250A  
                        i2l6569 24DA                          i2l7721 1E38                          i2l7713 1E02  
                        i2l7705 1DE6                          _S6_DIP 00C8                          i2l7395 155C  
                        i2l7387 1530                          i2l7379 150E                          i2l6579 250C  
                        i2l7731 1E5E                          i2l7723 1E48                          i2l7707 1DEA  
                        i2l7715 1E08                          i2l7397 1562                          i2l7389 1534  
                        i2l7741 1E84                          i2l7733 1E6C                          i2l7717 1E18  
                        i2l7709 1DEC                          i2l7399 1570                          i2l7671 25CE  
                        i2l7735 1E70                          i2l7719 1E28                          i2l7727 1E58  
                        i2l7911 196E                          i2l7681 2606                          i2l7673 25D6  
                        i2l7737 1E72                          i2l7729 1E5C                          i2l7921 19EA  
                        i2l7913 19C8                          i2l7691 2632                          i2l7683 260C  
                        i2l7675 25E8                          i2l7739 1E80                          i2l7931 1A26  
                        i2l7923 19EC                          i2l7915 19CC                          i2l7907 195E  
                        i2l7685 2622                          i2l7677 25F0                          i2l7693 2A34  
                        i2l7941 1A78                          i2l7925 1A04                          i2l7933 1A46  
                        i2l7917 19D0                          i2l7687 262A                          i2l7679 25F8  
                        i2l7695 1DAE                          i2l7927 1A08                          i2l7919 19D6  
                        i2l7689 262C                          i2l7937 1A68                          i2l7929 1A1E  
                        _S7_DIP 00C4                          i2l7699 1DC2                          i2l7939 1A76  
                        i2l7891 1948                          i2l7893 194E                          i2l7887 192C  
                        i2l7889 193A                          _RCREG1 0FAE                          _RCSTA1 0FAB  
                        _SPBRG1 0FAF               _temp_system_state 0044                          _SSPADD 0FC8  
                        _SSPBUF 0FC9                          _TXREG1 0FAD                          _TXSTA1 0FAC  
          _sel_btn_released_cnt 00BA          _counter_hour_set_value 0047                  ?_DecValProcess 004D  
                ?_Ds1307HourSet 004D                __end_of_high_isr 1A88                  ??_TLC5917Write 004F  
                     ??___awdiv 0063                       ??___awmod 0063                     ?_DeviceInit 004D  
              OpenTimer0@config 005F                       ??___lwdiv 0051          __end_of_OscillatorInit 2A62  
                        clear_0 2382                          clear_1 238E                          clear_2 239A  
              ___awdiv@quotient 012A                 ___awmod@divisor 0061                      _Puts1USART 275E  
                        isa$std 0001                  ?i2_WriteTimer0 004D                 ___awmod@counter 0063  
                  __pdataCOMRAM 0065             _rtc_clock_disp_mode 0043             _rtc_clock_disp_type 004C  
           __end_of_OpenDisplay 26B2                    __mediumconst 0000                       ??_low_isr 005C  
                        tblptrh 0FF7                          tblptrl 0FF6                          tblptru 0FF8  
           __end_of_OpenCounter 275E            _hour_btn_pressed_cnt 0014                     ?_Busy1USART 004D  
                   _MarkDisplay 10D6             __end_of_OpenButtons 25CE            Ds1307Write@hour_temp 0063  
                  ??_I2cRestart 005F                       ?_I2cStart 004D                       ?_I2cWrite 004D  
           _EnableAllInterrupts 2A88                      __accesstop 0080         __end_of__initialization 23A0  
                 ___rparam_used 0001                    _BlinkDisable 28E2                ??_UpDownTransfer 005F  
                __pcstackCOMRAM 004D                     _ReadCounter 17BA                    __pidataBANK0 2980  
                  __pidataBANK1 29B0                   ??_StartTimer0 005F            ?_EnableAllInterrupts 004D  
               ?_OscillatorInit 004D                     ?_Open1USART 005F                    ??_LEDProcess 005F  
            __end_of_I2cRestart 2A22                    _DetectStatus 23AE               __end_of_InitValue 24C8  
                   _ScanDisplay 164E                    ??_Ds1307Init 005F                     _ScanCounter 1CD4  
         _hour_btn_released_cnt 00C0                     _ScanButtons 14C8                 ??_Ds1307HMSRead 0063  
                 ??_StopCounter 005F           _counter_down_comp_flg 0034           _counter_down_comp_cnt 0033  
       _counter_down_set_minute 003D         _counter_down_set_second 003C           __end_of_IncValProcess 2858  
     _btn_long_press_verify_flg 002C                   BlinkDisable@i 005F               ??_Ds1307MinuteSet 0060  
             ??_Ds1307SecondSet 0060                      __pbssBANK0 0080                      __pbssBANK1 0116  
                    ??_I2cStart 005F                     ?_OpenTimer0 004D                      ??_I2cWrite 005F  
                 ??_Write1USART 005F                 ??_DecValProcess 005F                 ScanDisplay@temp 0057  
               ??_Ds1307HourSet 0060           _counter_down_set_hour 003E              __end_of_LEDProcess 1CD4  
              _long_pressed_cnt 00E4              __end_of_Ds1307Init 2A70           __end_of_VerifyButtons 10D6  
                I2cRead@receive 0060                 ??i2_WriteTimer0 004F           ??_EnableAllInterrupts 005F  
              WriteTimer0@timer 0061           __end_of_UpdateDisplay 27E6                   ??_WriteTimer0 0061  
                   _OpenDisplay 2642                     ?_Puts1USART 0060                     _OpenCounter 2716  
                   _OpenButtons 2550                         _I2cInit 29C6                         _I2cRead 2858  
                       _I2cWait 2908                         _I2cStop 2A22                Open1USART@config 0061  
                       i2l10651 1982             __end_of_StartTimer0 2A88                         i2l10653 170E  
                       _S0_Data 0022                         _S1_Data 0021              _counter_enable_flg 0038  
                       _S2_Data 0020                         _S3_Data 001F                         _S0_Mode 006C  
                       _S4_Data 001E                         _S1_Mode 006B                         _S5_Data 001D  
                       _S2_Mode 006A                         _S0_Port 00B4                   _ActionButtons 064E  
                       _S6_Data 001C                         _S3_Mode 0069                         _S1_Port 00B2  
                       _S7_Data 001B                         _S4_Mode 0068                         _S2_Port 00B0  
                       _S5_Mode 0067                         _S3_Port 00AE                         _S6_Mode 0066  
                       _S4_Port 00AC                         _S7_Mode 0065                         _S5_Port 00AA  
                       _IP_Addr 0090                         _S6_Port 00A8                         _S7_Port 00A6  
          __end_of_TLC5917Write 2550                         _SSPCON1 0FC6                _counter_skip_flg 0036  
                     ?_high_isr 004D                         _SSPSTAT 0FC7             __end_of_StopCounter 2A7E  
           i2WriteTimer0@timer0 004D                         __Hparam 0000                         __Lparam 0000  
           __end_of_Write1USART 28E2                         ___awdiv 20E6                         ___awmod 226C  
                       ___lwdiv 25CE                    __psmallconst 0600            _btn_press_verify_flg 002D  
                       __pcinit 231C                         __ramtop 0600                         __ptext0 12F0  
                       __ptext1 0D60                         __ptext2 064E                         __ptext3 27E6  
                       __ptext4 2A78                         __ptext5 2A7E                         __ptext6 2820  
                       __ptext7 292A                         __ptext8 2948                         __ptext9 2020  
                     _T0CONbits 0FD5                  OpenS5500@F2850 00EA                  OpenS5500@F2852 00E6  
                OpenS5500@F2846 0100                  OpenS5500@F2848 00EE                       _T1CONbits 0FCD  
                     _T2CONbits 0FCA           __end_ofi2_ScanCounter 1E88                         _int_cnt 004A  
                ?_ActionButtons 004D                       _T3CONbits 0FB1                ___awmod@dividend 005F  
                 _real_rtc_data 0001             __end_of_WriteTimer0 29EC                         _low_isr 0018  
             _rtc_hour_ampm_flg 004B                      ??_high_isr 0058                  __pintcode_body 1922  
          end_of_initialization 23A0                   __Lmediumconst 0000                         int_func 1922  
                    I2cRead@ack 005F                         postdec1 0FE5                  Puts1USART@data 0060  
                       postinc0 0FEE                    ??_DeviceInit 0065                   ?_StartCounter 004D  
                   _StartTimer0 2A84                       _UDP_DPORT 0094                       _PORTAbits 0F80  
                     _PORTBbits 0F81                       _PORTDbits 0F83                  OpenW5500@F2673 0106  
                OpenW5500@F2675 00FA                  OpenW5500@F2677 00F6                  OpenW5500@F2679 00F2  
            _counter_seting_flg 0035      Ds1307MinuteSet@minute_data 0060                       _TRISAbits 0F92  
                     _TRISBbits 0F93                       _TRISCbits 0F94                     _StopCounter 2A78  
                     _TRISDbits 0F95                    ??_Busy1USART 005F                    ?_MarkDisplay 004D  
        _reset_btn_released_cnt 00B8              __end_of_DeviceInit 2716           _counter_min_set_value 0046  
                   _Write1USART 28BA                    OpenDisplay@i 005F                ??_OscillatorInit 005F  
                  ?_ReadCounter 00FE                  ??_StartCounter 005F              __end_of_Busy1USART 29B0  
                 __pidataCOMRAM 2A70                    ??_Open1USART 0061                     _WriteTimer0 29DA  
               ??_ActionButtons 0063                    ?_ScanDisplay 004D                 _Ds1307MinuteSet 2948  
               _Ds1307SecondSet 292A                    ?_ScanCounter 004D                    ?_ScanButtons 004D  
           start_initialization 231C            _down_btn_pressed_cnt 0010                       _InitValue 243C  
                  ??_OpenTimer0 005F                   ??_Ds1307Write 0062       UpdateDisplay@update_datas 0132  
            __end_of_Open1USART 226C                   ??_TLC5917Init 005F           _counter_sec_set_value 0045  
              TLC5917Write@data 004D                 _BTN_CLICK_EVENT 002E                TLC5917Write@temp 0050  
                  _TLC5917Write 24C8                 _BTN_CLICK_STATE 002F                     __pdataBANK0 00E6  
                   __pdataBANK1 0100                    ?_OpenDisplay 004D                    ??_Puts1USART 0062  
                  ?_OpenCounter 004D                    ?_OpenButtons 004D                        ?_I2cInit 004D  
            __end_of_OpenTimer0 28BA                        ?_I2cRead 004D                        ?_I2cWait 004D  
                      ?_I2cStop 004D                     __pbssCOMRAM 0001                 MarkDisplay@mark 0061  
                 __pcstackBANK0 00FE                   __pcstackBANK1 0128                      ?_InitValue 004D  
         __end_of_Ds1307HMSRead 1F58              _rtc_clock_set_mode 0042                  _UpdateSetValue 2A46  
            _up_btn_pressed_cnt 0012              __end_of_Puts1USART 27A4           __end_of_DecValProcess 2020  
   __end_of_EnableAllInterrupts 2A8C                ___lwdiv@dividend 004D           __end_of_Ds1307HourSet 20E6  
                     __pintcode 0008             __end_of_Ds1307Write 1BE2                       _blink_cnt 0030  
                     _blink_pos 0080         __end_of_Ds1307MinuteSet 2966         __end_of_Ds1307SecondSet 2948  
                      ?___awdiv 005F                        ?___awmod 005F                        ?___lwdiv 004D  
                   __pintcodelo 0018                 Open1USART@spbrg 005F             _sel_btn_pressed_cnt 000E  
         __end_ofi2_WriteTimer0 2A46             __end_of_TLC5917Init 29FE                 _counter_up_hour 003B  
                   __smallconst 0600               WriteTimer0@timer0 005F              i2WriteTimer0@timer 004F  
                      ?_low_isr 004D                   TLC5917Write@i 0052                ___lwdiv@quotient 0051  
             _counter_down_hour 0041                 Write1USART@data 005F            __end_of_StartCounter 2A84  
                      _I2cStart 29FE          __end_of_UpdateSetValue 2A54                        _I2cWrite 2966  
                      _LATBbits 0F8A                        _LATCbits 0F8B                        _LATDbits 0F8C  
                      _S0_DPort 00A4                        _S1_DPort 00A2                        _S2_DPort 00A0  
                      _S3_DPort 009E                        _PIE1bits 0F9D                        _PIE2bits 0FA0  
          _set_mode_release_cnt 00C2                        _S4_DPort 009C                        _S5_DPort 009A  
                      _S6_DPort 0098                        i1u244_20 0034                        i1u244_21 0030  
                      _S7_DPort 0096                        i1u245_20 0042                        i1u245_21 003E  
                      i1u190_20 1CF8                        i1u190_21 1CF4                        _S0_State 002A  
                      i1u191_20 1D0C                        i1u191_21 1D08                        i1u192_20 1D24  
                      i1u192_21 1D20                        i1u193_20 1D3E                        i1u193_21 1D3A  
                      i1u194_20 1D4E                        i1u194_21 1D4A                        i1u195_20 1D5E  
                      i1u195_21 1D5A                        i1u196_20 1D6E                        i1u196_21 1D6A  
                      i1u197_20 1D92                        i1u189_20 1CE4                        i1u197_21 1D8E  
                      i1u189_21 1CE0                        i1u198_20 1DA6                        i1u198_21 1DA2  
                      _S1_State 0029                        _S2_State 0028                        _PIR1bits 0F9E  
                      i2u530_40 17A8                        i2u530_41 17A4                        i2u531_40 14D6  
                      i2u435_40 24EC                        i2u531_41 14D2                        i2u435_41 24E4  
                      _PIR2bits 0FA1                        i2u540_40 15BE                        i2u532_40 14F6  
                      i2u540_41 15BA                        i2u532_41 14F2                        i2u541_40 15DE  
                      i2u533_40 1506                        i2u437_40 2530                        i2u436_48 24EE  
                      i2u525_40 168C                        i2u541_41 15DA                        i2u533_41 1502  
                      i2u437_41 252C                        i2u525_41 1688                        _S3_State 0027  
                      i2u542_40 15F0                        i2u534_40 1522                        i2u526_40 16B2  
                      i2u550_40 2606                        i2u542_41 15EC                        i2u534_41 151E  
                      i2u526_41 16AE                        i2u550_41 2602                        i2u543_40 160C  
                      i2u535_40 1542                        i2u527_40 1772                        i2u551_40 2622  
                      i2u543_41 1608                        i2u535_41 153E                        i2u527_41 176E  
                      i2u551_41 261E                        i2u544_40 162C                        i2u536_40 1554  
                      i2u528_40 1786                        i2u560_40 1E6C                        i2u552_40 1DBE  
                      i2u544_41 1628                        i2u536_41 1550                        i2u528_41 1782  
                      i2u560_41 1E68                        i2u552_41 1DBA                        i2u545_40 163E  
                      i2u537_40 1570                        i2u529_40 1798                        i2u561_40 1E80  
                      i2u553_40 1DD2                        i2u545_41 163A                        i2u537_41 156C  
                      i2u529_41 1794                        i2u561_41 1E7C                        i2u553_41 1DCE  
                      i2u538_40 1590                        i2u554_40 1DE6                        i2u538_41 158C  
                      i2u554_41 1DE2                        i2u539_40 15A2                        i2u555_40 1DFE  
                      i2u539_41 159E                        i2u555_41 1DFA                        i2u556_40 1E18  
                      i2u572_40 193A                        i2u556_41 1E14                        i2u572_41 1936  
                      i2u549_40 25E8                        i2u557_40 1E28                        i2u573_40 1948  
                      i2u549_41 25E4                        i2u557_41 1E24                        i2u573_41 1944  
                      _S4_State 0026                        i2u558_40 1E38                        i2u574_40 19EA  
                      i2u558_41 1E34                        i2u574_41 19E6                        i2u806_47 2548  
                      i2u559_40 1E48                        i2u575_40 1A04                        i2u559_41 1E44  
                      i2u575_41 1A00                        i2u576_40 1A1E                        i2u576_41 1A1A  
                      i2u577_40 1A68                        i2u577_41 1A64                        i2u578_40 1A76  
                      i2u578_41 1A72                        _S5_State 0025                        _S6_State 0024  
                      _RCONbits 0FD0                        _S7_State 0023                        _UDP_DIPR 011C  
                  ?_StartTimer0 004D                     _display_cnt 0031               _counter_up_minute 003A  
             _counter_up_second 0039                    ?_StopCounter 004D                     ??_InitValue 0065  
                   _INTCON2bits 0FF1                     _INTCON3bits 0FF0                       copy_data0 2330  
                     copy_data1 2350                       copy_data2 2370                   _IncValProcess 2820  
               ?_UpdateSetValue 004D                    ?_Write1USART 004D                     _Ds1307Write 1A88  
                    _EECON1bits 0FA6                   ?_BlinkDisable 004D                        _Phy_Addr 0116  
                      __Hrparam 0000                        __Lrparam 0000                     _TLC5917Init 29EC  
                      _Sub_Mask 0120                   _VerifyButtons 0D60                ?_Ds1307MinuteSet 004D  
                UpdateDisplay@i 0136                ?_Ds1307SecondSet 004D                 _W5500_Interrupt 001A  
                    _BLINK_TIME 0016                    ?_WriteTimer0 005F                   _UpdateDisplay 27A4  
                 ?_DetectStatus 004D             _counter_down_minute 0040             _counter_down_second 003F  
               ___lwdiv@divisor 004F                 ___lwdiv@counter 0053                        __ptext10 1F58  
                      __ptext11 2A46                        __ptext20 28BA                        __ptext12 17BA  
                      __ptext21 2998                        __ptext13 226C                        __ptext30 27A4  
                      __ptext22 2A54                        __ptext14 20E6                        __ptext31 10D6  
                      __ptext23 2890                        __ptext15 1BE2                        __ptext40 2A88  
                      __ptext32 1A88                        __ptext24 2642                        __ptext16 26B2  
                      __ptext41 2A62                        __ptext33 1E88                        __ptext25 29EC  
                      __ptext17 29DA                        __ptext50 25CE                        __ptext42 29C6  
                      __ptext34 2966                        __ptext26 2716                        __ptext18 2A84  
                      __ptext51 164E                        __ptext43 23AE                        __ptext35 29FE  
                      __ptext27 2550                        __ptext19 275E                        __ptext52 24C8  
                      __ptext44 28E2                        __ptext36 2A10                        __ptext28 21AC  
                      __ptext53 14C8                        __ptext37 2858                        __ptext29 243C  
                      __ptext46 1CD4                        __ptext38 2908                        __ptext39 2A22  
                      __ptext48 2A34                        __ptext49 1DAE                  ?_IncValProcess 004D  
         _reset_btn_pressed_cnt 000C                        _high_isr 0008          Ds1307HourSet@hour_data 0061  
                    _I2cRestart 2A10          Ds1307HourSet@hour_temp 0062                  ??_BlinkDisable 005F  
                ?_VerifyButtons 004D                        isa$xinst 0000                        int$flags 006D  
                ?_UpdateDisplay 0132                  ??_DetectStatus 005F               _SYSTEM_ACTION_FLG 0049  
                _UpDownTransfer 27E6                   _USART1_Status 002B                      _LEDProcess 1BE2  
                    _Ds1307Init 2A62                _blink_enable_flg 0032                     _OSCTUNEbits 0F9B  
         __end_of_ActionButtons 0D60                      _INTCONbits 0FF2                   i2_ScanCounter 1DAE  
                      intlevel1 0000                        intlevel2 0000  Ds1307HMSRead@ds1307_date_datas 0128  
                    _RCSTA1bits 0FAB                      _OSCCONbits 0FD3          __end_of_UpDownTransfer 2820  
                  _StartCounter 2A7E           _down_btn_released_cnt 00BC                  ?i2_ScanCounter 004D  
                 _led_blink_cnt 0018                 ??_IncValProcess 005F                     _SSPCON1bits 0FC6  
                   _SSPCON2bits 0FC5                    I2cWrite@data 005F                     ?_I2cRestart 004D  
                 _display_datas 0088           _counter_direction_flg 0037               ActionButtons@temp 00FE  
               ??_VerifyButtons 0128           _CONTINUE_PRESSED_TIME 0008  
